
I2C_Driver.elf:     file format elf32-littlearm

Sections:
Idx Name          Size      VMA       LMA       File off  Algn
  0 .isr_vector   00000194  08000000  08000000  00010000  2**0
                  CONTENTS, ALLOC, LOAD, READONLY, DATA
  1 .text         00001114  08000194  08000194  00010194  2**2
                  CONTENTS, ALLOC, LOAD, READONLY, CODE
  2 .rodata       00000008  080012a8  080012a8  000112a8  2**2
                  CONTENTS, ALLOC, LOAD, READONLY, DATA
  3 .ARM.extab    00000000  080012b0  080012b0  00020020  2**0
                  CONTENTS
  4 .ARM          00000000  080012b0  080012b0  00020020  2**0
                  CONTENTS
  5 .preinit_array 00000000  080012b0  080012b0  00020020  2**0
                  CONTENTS, ALLOC, LOAD, DATA
  6 .init_array   00000004  080012b0  080012b0  000112b0  2**2
                  CONTENTS, ALLOC, LOAD, DATA
  7 .fini_array   00000004  080012b4  080012b4  000112b4  2**2
                  CONTENTS, ALLOC, LOAD, DATA
  8 .data         00000020  20000000  080012b8  00020000  2**2
                  CONTENTS, ALLOC, LOAD, DATA
  9 .bss          00000050  20000020  080012d8  00020020  2**2
                  ALLOC
 10 ._user_heap_stack 00000600  20000070  080012d8  00020070  2**0
                  ALLOC
 11 .ARM.attributes 00000030  00000000  00000000  00020020  2**0
                  CONTENTS, READONLY
 12 .comment      00000086  00000000  00000000  00020050  2**0
                  CONTENTS, READONLY
 13 .debug_info   00002f63  00000000  00000000  000200d6  2**0
                  CONTENTS, READONLY, DEBUGGING, OCTETS
 14 .debug_abbrev 00000ae2  00000000  00000000  00023039  2**0
                  CONTENTS, READONLY, DEBUGGING, OCTETS
 15 .debug_aranges 00000260  00000000  00000000  00023b20  2**3
                  CONTENTS, READONLY, DEBUGGING, OCTETS
 16 .debug_rnglists 000001bd  00000000  00000000  00023d80  2**0
                  CONTENTS, READONLY, DEBUGGING, OCTETS
 17 .debug_macro  0000e823  00000000  00000000  00023f3d  2**0
                  CONTENTS, READONLY, DEBUGGING, OCTETS
 18 .debug_line   00002dc7  00000000  00000000  00032760  2**0
                  CONTENTS, READONLY, DEBUGGING, OCTETS
 19 .debug_str    00051d23  00000000  00000000  00035527  2**0
                  CONTENTS, READONLY, DEBUGGING, OCTETS
 20 .debug_frame  000008d8  00000000  00000000  0008724c  2**2
                  CONTENTS, READONLY, DEBUGGING, OCTETS
 21 .debug_line_str 00000050  00000000  00000000  00087b24  2**0
                  CONTENTS, READONLY, DEBUGGING, OCTETS

Disassembly of section .text:

08000194 <__do_global_dtors_aux>:
 8000194:	b510      	push	{r4, lr}
 8000196:	4c05      	ldr	r4, [pc, #20]	; (80001ac <__do_global_dtors_aux+0x18>)
 8000198:	7823      	ldrb	r3, [r4, #0]
 800019a:	b933      	cbnz	r3, 80001aa <__do_global_dtors_aux+0x16>
 800019c:	4b04      	ldr	r3, [pc, #16]	; (80001b0 <__do_global_dtors_aux+0x1c>)
 800019e:	b113      	cbz	r3, 80001a6 <__do_global_dtors_aux+0x12>
 80001a0:	4804      	ldr	r0, [pc, #16]	; (80001b4 <__do_global_dtors_aux+0x20>)
 80001a2:	f3af 8000 	nop.w
 80001a6:	2301      	movs	r3, #1
 80001a8:	7023      	strb	r3, [r4, #0]
 80001aa:	bd10      	pop	{r4, pc}
 80001ac:	20000020 	.word	0x20000020
 80001b0:	00000000 	.word	0x00000000
 80001b4:	08001290 	.word	0x08001290

080001b8 <frame_dummy>:
 80001b8:	b508      	push	{r3, lr}
 80001ba:	4b03      	ldr	r3, [pc, #12]	; (80001c8 <frame_dummy+0x10>)
 80001bc:	b11b      	cbz	r3, 80001c6 <frame_dummy+0xe>
 80001be:	4903      	ldr	r1, [pc, #12]	; (80001cc <frame_dummy+0x14>)
 80001c0:	4803      	ldr	r0, [pc, #12]	; (80001d0 <frame_dummy+0x18>)
 80001c2:	f3af 8000 	nop.w
 80001c6:	bd08      	pop	{r3, pc}
 80001c8:	00000000 	.word	0x00000000
 80001cc:	20000024 	.word	0x20000024
 80001d0:	08001290 	.word	0x08001290

080001d4 <GPIO_Config>:
 * 			0x0		or		GPIO_PUPD_None
 * 			0x1		or		GPIO_PullUp
 * 			0x2		or		GPIO_PullDown
 */
void GPIO_Config(GPIO_Config_t *GPIO_Config, GPIO_TypeDef *Port, uint8_t Pin, uint8_t Mode, uint8_t OType, uint8_t OSpeed, uint8_t PUPD)
{
 80001d4:	b480      	push	{r7}
 80001d6:	b085      	sub	sp, #20
 80001d8:	af00      	add	r7, sp, #0
 80001da:	60f8      	str	r0, [r7, #12]
 80001dc:	60b9      	str	r1, [r7, #8]
 80001de:	4611      	mov	r1, r2
 80001e0:	461a      	mov	r2, r3
 80001e2:	460b      	mov	r3, r1
 80001e4:	71fb      	strb	r3, [r7, #7]
 80001e6:	4613      	mov	r3, r2
 80001e8:	71bb      	strb	r3, [r7, #6]
	GPIO_Config->GPIO_Pin = Pin;
 80001ea:	68fb      	ldr	r3, [r7, #12]
 80001ec:	79fa      	ldrb	r2, [r7, #7]
 80001ee:	701a      	strb	r2, [r3, #0]
	GPIO_Config->GPIO_Port = Port;
 80001f0:	68fb      	ldr	r3, [r7, #12]
 80001f2:	68ba      	ldr	r2, [r7, #8]
 80001f4:	609a      	str	r2, [r3, #8]
	GPIO_Config->GPIO_MODE = Mode;
 80001f6:	68fb      	ldr	r3, [r7, #12]
 80001f8:	79ba      	ldrb	r2, [r7, #6]
 80001fa:	705a      	strb	r2, [r3, #1]
	GPIO_Config->GPIO_OTYPE = OType;
 80001fc:	68fb      	ldr	r3, [r7, #12]
 80001fe:	7e3a      	ldrb	r2, [r7, #24]
 8000200:	709a      	strb	r2, [r3, #2]
	GPIO_Config->GPIO_OSPEED = OSpeed;
 8000202:	68fb      	ldr	r3, [r7, #12]
 8000204:	7f3a      	ldrb	r2, [r7, #28]
 8000206:	70da      	strb	r2, [r3, #3]
	GPIO_Config->GPIO_PUPD = PUPD;
 8000208:	68fb      	ldr	r3, [r7, #12]
 800020a:	f897 2020 	ldrb.w	r2, [r7, #32]
 800020e:	711a      	strb	r2, [r3, #4]
}
 8000210:	bf00      	nop
 8000212:	3714      	adds	r7, #20
 8000214:	46bd      	mov	sp, r7
 8000216:	f85d 7b04 	ldr.w	r7, [sp], #4
 800021a:	4770      	bx	lr

0800021c <GPIO_PeriphClck>:
 * @param	GPIOx: Defines the specific GPIO port, where x can range from A - E, or H.
 *
 * @param	state: Specifies whether to enable or disable the peripheral.
 */
void GPIO_PeriphClck(GPIO_TypeDef *GPIOx, FunctionalState state)
{
 800021c:	b580      	push	{r7, lr}
 800021e:	b082      	sub	sp, #8
 8000220:	af00      	add	r7, sp, #0
 8000222:	6078      	str	r0, [r7, #4]
 8000224:	460b      	mov	r3, r1
 8000226:	70fb      	strb	r3, [r7, #3]
	if(state == ENABLE)
 8000228:	78fb      	ldrb	r3, [r7, #3]
 800022a:	2b01      	cmp	r3, #1
 800022c:	d135      	bne.n	800029a <GPIO_PeriphClck+0x7e>
	{
		if(GPIOx == GPIOA)
 800022e:	687b      	ldr	r3, [r7, #4]
 8000230:	4a36      	ldr	r2, [pc, #216]	; (800030c <GPIO_PeriphClck+0xf0>)
 8000232:	4293      	cmp	r3, r2
 8000234:	d104      	bne.n	8000240 <GPIO_PeriphClck+0x24>
		{
			RCC_AHB1Cmd(GPIOA_Enable, ENABLE);
 8000236:	2101      	movs	r1, #1
 8000238:	2001      	movs	r0, #1
 800023a:	f000 fc95 	bl	8000b68 <RCC_AHB1Cmd>
			RCC_AHB1Cmd(GPIOH_Enable, DISABLE);
		}

	}

}
 800023e:	e061      	b.n	8000304 <GPIO_PeriphClck+0xe8>
		else if(GPIOx == GPIOB)
 8000240:	687b      	ldr	r3, [r7, #4]
 8000242:	4a33      	ldr	r2, [pc, #204]	; (8000310 <GPIO_PeriphClck+0xf4>)
 8000244:	4293      	cmp	r3, r2
 8000246:	d104      	bne.n	8000252 <GPIO_PeriphClck+0x36>
			RCC_AHB1Cmd(GPIOB_Enable, ENABLE);
 8000248:	2101      	movs	r1, #1
 800024a:	2002      	movs	r0, #2
 800024c:	f000 fc8c 	bl	8000b68 <RCC_AHB1Cmd>
}
 8000250:	e058      	b.n	8000304 <GPIO_PeriphClck+0xe8>
		else if(GPIOx == GPIOC)
 8000252:	687b      	ldr	r3, [r7, #4]
 8000254:	4a2f      	ldr	r2, [pc, #188]	; (8000314 <GPIO_PeriphClck+0xf8>)
 8000256:	4293      	cmp	r3, r2
 8000258:	d104      	bne.n	8000264 <GPIO_PeriphClck+0x48>
			RCC_AHB1Cmd(GPIOC_Enable, ENABLE);
 800025a:	2101      	movs	r1, #1
 800025c:	2004      	movs	r0, #4
 800025e:	f000 fc83 	bl	8000b68 <RCC_AHB1Cmd>
}
 8000262:	e04f      	b.n	8000304 <GPIO_PeriphClck+0xe8>
		else if(GPIOx == GPIOD)
 8000264:	687b      	ldr	r3, [r7, #4]
 8000266:	4a2c      	ldr	r2, [pc, #176]	; (8000318 <GPIO_PeriphClck+0xfc>)
 8000268:	4293      	cmp	r3, r2
 800026a:	d104      	bne.n	8000276 <GPIO_PeriphClck+0x5a>
			RCC_AHB1Cmd(GPIOD_Enable, ENABLE);
 800026c:	2101      	movs	r1, #1
 800026e:	2008      	movs	r0, #8
 8000270:	f000 fc7a 	bl	8000b68 <RCC_AHB1Cmd>
}
 8000274:	e046      	b.n	8000304 <GPIO_PeriphClck+0xe8>
		else if(GPIOx == GPIOE)
 8000276:	687b      	ldr	r3, [r7, #4]
 8000278:	4a28      	ldr	r2, [pc, #160]	; (800031c <GPIO_PeriphClck+0x100>)
 800027a:	4293      	cmp	r3, r2
 800027c:	d104      	bne.n	8000288 <GPIO_PeriphClck+0x6c>
			RCC_AHB1Cmd(GPIOE_Enable, ENABLE);
 800027e:	2101      	movs	r1, #1
 8000280:	2010      	movs	r0, #16
 8000282:	f000 fc71 	bl	8000b68 <RCC_AHB1Cmd>
}
 8000286:	e03d      	b.n	8000304 <GPIO_PeriphClck+0xe8>
		else if(GPIOx == GPIOH)
 8000288:	687b      	ldr	r3, [r7, #4]
 800028a:	4a25      	ldr	r2, [pc, #148]	; (8000320 <GPIO_PeriphClck+0x104>)
 800028c:	4293      	cmp	r3, r2
 800028e:	d139      	bne.n	8000304 <GPIO_PeriphClck+0xe8>
			RCC_AHB1Cmd(GPIOH_Enable, ENABLE);
 8000290:	2101      	movs	r1, #1
 8000292:	2080      	movs	r0, #128	; 0x80
 8000294:	f000 fc68 	bl	8000b68 <RCC_AHB1Cmd>
}
 8000298:	e034      	b.n	8000304 <GPIO_PeriphClck+0xe8>
		if(GPIOx == GPIOA)
 800029a:	687b      	ldr	r3, [r7, #4]
 800029c:	4a1b      	ldr	r2, [pc, #108]	; (800030c <GPIO_PeriphClck+0xf0>)
 800029e:	4293      	cmp	r3, r2
 80002a0:	d104      	bne.n	80002ac <GPIO_PeriphClck+0x90>
			RCC_AHB1Cmd(GPIOA_Enable, DISABLE);
 80002a2:	2100      	movs	r1, #0
 80002a4:	2001      	movs	r0, #1
 80002a6:	f000 fc5f 	bl	8000b68 <RCC_AHB1Cmd>
}
 80002aa:	e02b      	b.n	8000304 <GPIO_PeriphClck+0xe8>
		else if(GPIOx == GPIOB)
 80002ac:	687b      	ldr	r3, [r7, #4]
 80002ae:	4a18      	ldr	r2, [pc, #96]	; (8000310 <GPIO_PeriphClck+0xf4>)
 80002b0:	4293      	cmp	r3, r2
 80002b2:	d104      	bne.n	80002be <GPIO_PeriphClck+0xa2>
			RCC_AHB1Cmd(GPIOB_Enable, DISABLE);
 80002b4:	2100      	movs	r1, #0
 80002b6:	2002      	movs	r0, #2
 80002b8:	f000 fc56 	bl	8000b68 <RCC_AHB1Cmd>
}
 80002bc:	e022      	b.n	8000304 <GPIO_PeriphClck+0xe8>
		else if(GPIOx == GPIOC)
 80002be:	687b      	ldr	r3, [r7, #4]
 80002c0:	4a14      	ldr	r2, [pc, #80]	; (8000314 <GPIO_PeriphClck+0xf8>)
 80002c2:	4293      	cmp	r3, r2
 80002c4:	d104      	bne.n	80002d0 <GPIO_PeriphClck+0xb4>
			RCC_AHB1Cmd(GPIOC_Enable, DISABLE);
 80002c6:	2100      	movs	r1, #0
 80002c8:	2004      	movs	r0, #4
 80002ca:	f000 fc4d 	bl	8000b68 <RCC_AHB1Cmd>
}
 80002ce:	e019      	b.n	8000304 <GPIO_PeriphClck+0xe8>
		else if(GPIOx == GPIOD)
 80002d0:	687b      	ldr	r3, [r7, #4]
 80002d2:	4a11      	ldr	r2, [pc, #68]	; (8000318 <GPIO_PeriphClck+0xfc>)
 80002d4:	4293      	cmp	r3, r2
 80002d6:	d104      	bne.n	80002e2 <GPIO_PeriphClck+0xc6>
			RCC_AHB1Cmd(GPIOD_Enable, DISABLE);
 80002d8:	2100      	movs	r1, #0
 80002da:	2008      	movs	r0, #8
 80002dc:	f000 fc44 	bl	8000b68 <RCC_AHB1Cmd>
}
 80002e0:	e010      	b.n	8000304 <GPIO_PeriphClck+0xe8>
		else if(GPIOx == GPIOE)
 80002e2:	687b      	ldr	r3, [r7, #4]
 80002e4:	4a0d      	ldr	r2, [pc, #52]	; (800031c <GPIO_PeriphClck+0x100>)
 80002e6:	4293      	cmp	r3, r2
 80002e8:	d104      	bne.n	80002f4 <GPIO_PeriphClck+0xd8>
			RCC_AHB1Cmd(GPIOE_Enable, DISABLE);
 80002ea:	2100      	movs	r1, #0
 80002ec:	2010      	movs	r0, #16
 80002ee:	f000 fc3b 	bl	8000b68 <RCC_AHB1Cmd>
}
 80002f2:	e007      	b.n	8000304 <GPIO_PeriphClck+0xe8>
		else if(GPIOx == GPIOH)
 80002f4:	687b      	ldr	r3, [r7, #4]
 80002f6:	4a0a      	ldr	r2, [pc, #40]	; (8000320 <GPIO_PeriphClck+0x104>)
 80002f8:	4293      	cmp	r3, r2
 80002fa:	d103      	bne.n	8000304 <GPIO_PeriphClck+0xe8>
			RCC_AHB1Cmd(GPIOH_Enable, DISABLE);
 80002fc:	2100      	movs	r1, #0
 80002fe:	2080      	movs	r0, #128	; 0x80
 8000300:	f000 fc32 	bl	8000b68 <RCC_AHB1Cmd>
}
 8000304:	bf00      	nop
 8000306:	3708      	adds	r7, #8
 8000308:	46bd      	mov	sp, r7
 800030a:	bd80      	pop	{r7, pc}
 800030c:	40020000 	.word	0x40020000
 8000310:	40020400 	.word	0x40020400
 8000314:	40020800 	.word	0x40020800
 8000318:	40020c00 	.word	0x40020c00
 800031c:	40021000 	.word	0x40021000
 8000320:	40021c00 	.word	0x40021c00

08000324 <GPIO_AlternateFunctionConfig>:
 * @param	alt_function: This will take in the alternate function value that the user wishes to use.
 * 			The specific alternate function values and their functions are present in the data sheet.
 * 			The inputs for this function are AF0 - AF15;
 */
void GPIO_AlternateFunctionConfig(GPIO_Config_t *GPIO_Config, AFR_Config_t alt_function)
{
 8000324:	b480      	push	{r7}
 8000326:	b085      	sub	sp, #20
 8000328:	af00      	add	r7, sp, #0
 800032a:	6078      	str	r0, [r7, #4]
 800032c:	460b      	mov	r3, r1
 800032e:	70fb      	strb	r3, [r7, #3]
	uint8_t pin = GPIO_Config->GPIO_Pin;
 8000330:	687b      	ldr	r3, [r7, #4]
 8000332:	781b      	ldrb	r3, [r3, #0]
 8000334:	73fb      	strb	r3, [r7, #15]
	uint8_t alt_function_array = pin/8;
 8000336:	7bfb      	ldrb	r3, [r7, #15]
 8000338:	08db      	lsrs	r3, r3, #3
 800033a:	73bb      	strb	r3, [r7, #14]

	if(alt_function_array == 1)
 800033c:	7bbb      	ldrb	r3, [r7, #14]
 800033e:	2b01      	cmp	r3, #1
 8000340:	d102      	bne.n	8000348 <GPIO_AlternateFunctionConfig+0x24>
	{
		pin -= 8;
 8000342:	7bfb      	ldrb	r3, [r7, #15]
 8000344:	3b08      	subs	r3, #8
 8000346:	73fb      	strb	r3, [r7, #15]
	}

	GPIO_Config->GPIO_Port->AFR[alt_function_array] &= ~(AF15 << (pin * 4));
 8000348:	687b      	ldr	r3, [r7, #4]
 800034a:	689b      	ldr	r3, [r3, #8]
 800034c:	7bba      	ldrb	r2, [r7, #14]
 800034e:	3208      	adds	r2, #8
 8000350:	f853 1022 	ldr.w	r1, [r3, r2, lsl #2]
 8000354:	7bfb      	ldrb	r3, [r7, #15]
 8000356:	009b      	lsls	r3, r3, #2
 8000358:	220f      	movs	r2, #15
 800035a:	fa02 f303 	lsl.w	r3, r2, r3
 800035e:	43db      	mvns	r3, r3
 8000360:	4618      	mov	r0, r3
 8000362:	687b      	ldr	r3, [r7, #4]
 8000364:	689b      	ldr	r3, [r3, #8]
 8000366:	7bba      	ldrb	r2, [r7, #14]
 8000368:	4001      	ands	r1, r0
 800036a:	3208      	adds	r2, #8
 800036c:	f843 1022 	str.w	r1, [r3, r2, lsl #2]
	GPIO_Config->GPIO_Port->AFR[alt_function_array] |= (alt_function << (pin * 4));
 8000370:	687b      	ldr	r3, [r7, #4]
 8000372:	689b      	ldr	r3, [r3, #8]
 8000374:	7bba      	ldrb	r2, [r7, #14]
 8000376:	3208      	adds	r2, #8
 8000378:	f853 1022 	ldr.w	r1, [r3, r2, lsl #2]
 800037c:	78fa      	ldrb	r2, [r7, #3]
 800037e:	7bfb      	ldrb	r3, [r7, #15]
 8000380:	009b      	lsls	r3, r3, #2
 8000382:	fa02 f303 	lsl.w	r3, r2, r3
 8000386:	4618      	mov	r0, r3
 8000388:	687b      	ldr	r3, [r7, #4]
 800038a:	689b      	ldr	r3, [r3, #8]
 800038c:	7bba      	ldrb	r2, [r7, #14]
 800038e:	4301      	orrs	r1, r0
 8000390:	3208      	adds	r2, #8
 8000392:	f843 1022 	str.w	r1, [r3, r2, lsl #2]
}
 8000396:	bf00      	nop
 8000398:	3714      	adds	r7, #20
 800039a:	46bd      	mov	sp, r7
 800039c:	f85d 7b04 	ldr.w	r7, [sp], #4
 80003a0:	4770      	bx	lr
	...

080003a4 <GPIO_Init>:
 *
 * @param	GPIO_Config: pointer to the GPIO_Config_t data structure that contains the
 * 			configuration parameters for the specific GPIO pin.
 */
void GPIO_Init(GPIO_Config_t *GPIO_Config, AFR_Config_t alt_function)
{
 80003a4:	b580      	push	{r7, lr}
 80003a6:	b084      	sub	sp, #16
 80003a8:	af00      	add	r7, sp, #0
 80003aa:	6078      	str	r0, [r7, #4]
 80003ac:	460b      	mov	r3, r1
 80003ae:	70fb      	strb	r3, [r7, #3]
	uint8_t pin = GPIO_Config->GPIO_Pin;
 80003b0:	687b      	ldr	r3, [r7, #4]
 80003b2:	781b      	ldrb	r3, [r3, #0]
 80003b4:	73fb      	strb	r3, [r7, #15]
	uint32_t temp_variable;

	GPIO_PeriphClck(GPIO_Config->GPIO_Port, ENABLE);
 80003b6:	687b      	ldr	r3, [r7, #4]
 80003b8:	689b      	ldr	r3, [r3, #8]
 80003ba:	2101      	movs	r1, #1
 80003bc:	4618      	mov	r0, r3
 80003be:	f7ff ff2d 	bl	800021c <GPIO_PeriphClck>

	if(GPIO_Config->GPIO_Pin == AllPins)
 80003c2:	687b      	ldr	r3, [r7, #4]
 80003c4:	781b      	ldrb	r3, [r3, #0]
 80003c6:	2b10      	cmp	r3, #16
 80003c8:	f040 8094 	bne.w	80004f4 <GPIO_Init+0x150>
	{
		if(GPIO_Config->GPIO_Port == GPIOA)
 80003cc:	687b      	ldr	r3, [r7, #4]
 80003ce:	689b      	ldr	r3, [r3, #8]
 80003d0:	4a88      	ldr	r2, [pc, #544]	; (80005f4 <GPIO_Init+0x250>)
 80003d2:	4293      	cmp	r3, r2
 80003d4:	d112      	bne.n	80003fc <GPIO_Init+0x58>
		{
			/*Use the lock configuration to lock PA13 and PA14*/
			GPIO_Config->GPIO_Port->LCKR = LCKR_1_Pin13_Pin14;
 80003d6:	687b      	ldr	r3, [r7, #4]
 80003d8:	689b      	ldr	r3, [r3, #8]
 80003da:	f44f 32b0 	mov.w	r2, #90112	; 0x16000
 80003de:	61da      	str	r2, [r3, #28]
			GPIO_Config->GPIO_Port->LCKR = LCKR_0_Pin13_Pin14;
 80003e0:	687b      	ldr	r3, [r7, #4]
 80003e2:	689b      	ldr	r3, [r3, #8]
 80003e4:	f44f 42c0 	mov.w	r2, #24576	; 0x6000
 80003e8:	61da      	str	r2, [r3, #28]
			GPIO_Config->GPIO_Port->LCKR = LCKR_1_Pin13_Pin14;
 80003ea:	687b      	ldr	r3, [r7, #4]
 80003ec:	689b      	ldr	r3, [r3, #8]
 80003ee:	f44f 32b0 	mov.w	r2, #90112	; 0x16000
 80003f2:	61da      	str	r2, [r3, #28]
			temp_variable = GPIO_Config->GPIO_Port->LCKR;
 80003f4:	687b      	ldr	r3, [r7, #4]
 80003f6:	689b      	ldr	r3, [r3, #8]
 80003f8:	69db      	ldr	r3, [r3, #28]
 80003fa:	60bb      	str	r3, [r7, #8]
		}

		/*Used to set each pin is AllPins is set by user*/
		for(pin = 0; pin < 16; pin++)
 80003fc:	2300      	movs	r3, #0
 80003fe:	73fb      	strb	r3, [r7, #15]
 8000400:	e074      	b.n	80004ec <GPIO_Init+0x148>
		{
			GPIO_Config->GPIO_Port->MODER &= ~(GPIO_Mode_Reset << (pin * 2));
 8000402:	687b      	ldr	r3, [r7, #4]
 8000404:	689b      	ldr	r3, [r3, #8]
 8000406:	681a      	ldr	r2, [r3, #0]
 8000408:	7bfb      	ldrb	r3, [r7, #15]
 800040a:	005b      	lsls	r3, r3, #1
 800040c:	2103      	movs	r1, #3
 800040e:	fa01 f303 	lsl.w	r3, r1, r3
 8000412:	43db      	mvns	r3, r3
 8000414:	4619      	mov	r1, r3
 8000416:	687b      	ldr	r3, [r7, #4]
 8000418:	689b      	ldr	r3, [r3, #8]
 800041a:	400a      	ands	r2, r1
 800041c:	601a      	str	r2, [r3, #0]
			GPIO_Config->GPIO_Port->MODER |= ((GPIO_Config->GPIO_MODE) << (pin * 2));
 800041e:	687b      	ldr	r3, [r7, #4]
 8000420:	689b      	ldr	r3, [r3, #8]
 8000422:	681a      	ldr	r2, [r3, #0]
 8000424:	687b      	ldr	r3, [r7, #4]
 8000426:	785b      	ldrb	r3, [r3, #1]
 8000428:	4619      	mov	r1, r3
 800042a:	7bfb      	ldrb	r3, [r7, #15]
 800042c:	005b      	lsls	r3, r3, #1
 800042e:	fa01 f303 	lsl.w	r3, r1, r3
 8000432:	4619      	mov	r1, r3
 8000434:	687b      	ldr	r3, [r7, #4]
 8000436:	689b      	ldr	r3, [r3, #8]
 8000438:	430a      	orrs	r2, r1
 800043a:	601a      	str	r2, [r3, #0]

			GPIO_Config->GPIO_Port->OTYPER &= ~(GPIO_OType_Reset << pin);
 800043c:	687b      	ldr	r3, [r7, #4]
 800043e:	689b      	ldr	r3, [r3, #8]
 8000440:	685a      	ldr	r2, [r3, #4]
 8000442:	7bfb      	ldrb	r3, [r7, #15]
 8000444:	2101      	movs	r1, #1
 8000446:	fa01 f303 	lsl.w	r3, r1, r3
 800044a:	43db      	mvns	r3, r3
 800044c:	4619      	mov	r1, r3
 800044e:	687b      	ldr	r3, [r7, #4]
 8000450:	689b      	ldr	r3, [r3, #8]
 8000452:	400a      	ands	r2, r1
 8000454:	605a      	str	r2, [r3, #4]
			GPIO_Config->GPIO_Port->OTYPER |= ((GPIO_Config->GPIO_OTYPE) << pin);
 8000456:	687b      	ldr	r3, [r7, #4]
 8000458:	689b      	ldr	r3, [r3, #8]
 800045a:	685a      	ldr	r2, [r3, #4]
 800045c:	687b      	ldr	r3, [r7, #4]
 800045e:	789b      	ldrb	r3, [r3, #2]
 8000460:	4619      	mov	r1, r3
 8000462:	7bfb      	ldrb	r3, [r7, #15]
 8000464:	fa01 f303 	lsl.w	r3, r1, r3
 8000468:	4619      	mov	r1, r3
 800046a:	687b      	ldr	r3, [r7, #4]
 800046c:	689b      	ldr	r3, [r3, #8]
 800046e:	430a      	orrs	r2, r1
 8000470:	605a      	str	r2, [r3, #4]

			GPIO_Config->GPIO_Port->OSPEEDR &= ~(GPIO_OSpeed_Reset << (pin * 2));
 8000472:	687b      	ldr	r3, [r7, #4]
 8000474:	689b      	ldr	r3, [r3, #8]
 8000476:	689a      	ldr	r2, [r3, #8]
 8000478:	7bfb      	ldrb	r3, [r7, #15]
 800047a:	005b      	lsls	r3, r3, #1
 800047c:	2101      	movs	r1, #1
 800047e:	fa01 f303 	lsl.w	r3, r1, r3
 8000482:	43db      	mvns	r3, r3
 8000484:	4619      	mov	r1, r3
 8000486:	687b      	ldr	r3, [r7, #4]
 8000488:	689b      	ldr	r3, [r3, #8]
 800048a:	400a      	ands	r2, r1
 800048c:	609a      	str	r2, [r3, #8]
			GPIO_Config->GPIO_Port->OSPEEDR |= ((GPIO_Config->GPIO_OSPEED) << (pin * 2));
 800048e:	687b      	ldr	r3, [r7, #4]
 8000490:	689b      	ldr	r3, [r3, #8]
 8000492:	689a      	ldr	r2, [r3, #8]
 8000494:	687b      	ldr	r3, [r7, #4]
 8000496:	78db      	ldrb	r3, [r3, #3]
 8000498:	4619      	mov	r1, r3
 800049a:	7bfb      	ldrb	r3, [r7, #15]
 800049c:	005b      	lsls	r3, r3, #1
 800049e:	fa01 f303 	lsl.w	r3, r1, r3
 80004a2:	4619      	mov	r1, r3
 80004a4:	687b      	ldr	r3, [r7, #4]
 80004a6:	689b      	ldr	r3, [r3, #8]
 80004a8:	430a      	orrs	r2, r1
 80004aa:	609a      	str	r2, [r3, #8]

			GPIO_Config->GPIO_Port->PUPDR &= ~(GPIO_PUPD_Reset << (pin * 2));
 80004ac:	687b      	ldr	r3, [r7, #4]
 80004ae:	689b      	ldr	r3, [r3, #8]
 80004b0:	68da      	ldr	r2, [r3, #12]
 80004b2:	7bfb      	ldrb	r3, [r7, #15]
 80004b4:	005b      	lsls	r3, r3, #1
 80004b6:	2103      	movs	r1, #3
 80004b8:	fa01 f303 	lsl.w	r3, r1, r3
 80004bc:	43db      	mvns	r3, r3
 80004be:	4619      	mov	r1, r3
 80004c0:	687b      	ldr	r3, [r7, #4]
 80004c2:	689b      	ldr	r3, [r3, #8]
 80004c4:	400a      	ands	r2, r1
 80004c6:	60da      	str	r2, [r3, #12]
			GPIO_Config->GPIO_Port->PUPDR |= ((GPIO_Config->GPIO_PUPD) << (pin * 2));
 80004c8:	687b      	ldr	r3, [r7, #4]
 80004ca:	689b      	ldr	r3, [r3, #8]
 80004cc:	68da      	ldr	r2, [r3, #12]
 80004ce:	687b      	ldr	r3, [r7, #4]
 80004d0:	791b      	ldrb	r3, [r3, #4]
 80004d2:	4619      	mov	r1, r3
 80004d4:	7bfb      	ldrb	r3, [r7, #15]
 80004d6:	005b      	lsls	r3, r3, #1
 80004d8:	fa01 f303 	lsl.w	r3, r1, r3
 80004dc:	4619      	mov	r1, r3
 80004de:	687b      	ldr	r3, [r7, #4]
 80004e0:	689b      	ldr	r3, [r3, #8]
 80004e2:	430a      	orrs	r2, r1
 80004e4:	60da      	str	r2, [r3, #12]
		for(pin = 0; pin < 16; pin++)
 80004e6:	7bfb      	ldrb	r3, [r7, #15]
 80004e8:	3301      	adds	r3, #1
 80004ea:	73fb      	strb	r3, [r7, #15]
 80004ec:	7bfb      	ldrb	r3, [r7, #15]
 80004ee:	2b0f      	cmp	r3, #15
 80004f0:	d987      	bls.n	8000402 <GPIO_Init+0x5e>

		GPIO_Config->GPIO_Port->PUPDR &= ~(GPIO_PUPD_Reset << (pin * 2));
		GPIO_Config->GPIO_Port->PUPDR |= ((GPIO_Config->GPIO_PUPD) << (pin * 2));
	}

}
 80004f2:	e07a      	b.n	80005ea <GPIO_Init+0x246>
		GPIO_Config->GPIO_Port->MODER &= ~(GPIO_Mode_Reset << (pin * 2));
 80004f4:	687b      	ldr	r3, [r7, #4]
 80004f6:	689b      	ldr	r3, [r3, #8]
 80004f8:	681a      	ldr	r2, [r3, #0]
 80004fa:	7bfb      	ldrb	r3, [r7, #15]
 80004fc:	005b      	lsls	r3, r3, #1
 80004fe:	2103      	movs	r1, #3
 8000500:	fa01 f303 	lsl.w	r3, r1, r3
 8000504:	43db      	mvns	r3, r3
 8000506:	4619      	mov	r1, r3
 8000508:	687b      	ldr	r3, [r7, #4]
 800050a:	689b      	ldr	r3, [r3, #8]
 800050c:	400a      	ands	r2, r1
 800050e:	601a      	str	r2, [r3, #0]
		GPIO_Config->GPIO_Port->MODER |= ((GPIO_Config->GPIO_MODE) << (pin * 2));
 8000510:	687b      	ldr	r3, [r7, #4]
 8000512:	689b      	ldr	r3, [r3, #8]
 8000514:	681a      	ldr	r2, [r3, #0]
 8000516:	687b      	ldr	r3, [r7, #4]
 8000518:	785b      	ldrb	r3, [r3, #1]
 800051a:	4619      	mov	r1, r3
 800051c:	7bfb      	ldrb	r3, [r7, #15]
 800051e:	005b      	lsls	r3, r3, #1
 8000520:	fa01 f303 	lsl.w	r3, r1, r3
 8000524:	4619      	mov	r1, r3
 8000526:	687b      	ldr	r3, [r7, #4]
 8000528:	689b      	ldr	r3, [r3, #8]
 800052a:	430a      	orrs	r2, r1
 800052c:	601a      	str	r2, [r3, #0]
		if(GPIO_Config->GPIO_MODE == GPIO_AF)
 800052e:	687b      	ldr	r3, [r7, #4]
 8000530:	785b      	ldrb	r3, [r3, #1]
 8000532:	2b02      	cmp	r3, #2
 8000534:	d104      	bne.n	8000540 <GPIO_Init+0x19c>
			GPIO_AlternateFunctionConfig(GPIO_Config, alt_function);
 8000536:	78fb      	ldrb	r3, [r7, #3]
 8000538:	4619      	mov	r1, r3
 800053a:	6878      	ldr	r0, [r7, #4]
 800053c:	f7ff fef2 	bl	8000324 <GPIO_AlternateFunctionConfig>
		GPIO_Config->GPIO_Port->OTYPER &= ~(GPIO_OType_Reset << pin);
 8000540:	687b      	ldr	r3, [r7, #4]
 8000542:	689b      	ldr	r3, [r3, #8]
 8000544:	685a      	ldr	r2, [r3, #4]
 8000546:	7bfb      	ldrb	r3, [r7, #15]
 8000548:	2101      	movs	r1, #1
 800054a:	fa01 f303 	lsl.w	r3, r1, r3
 800054e:	43db      	mvns	r3, r3
 8000550:	4619      	mov	r1, r3
 8000552:	687b      	ldr	r3, [r7, #4]
 8000554:	689b      	ldr	r3, [r3, #8]
 8000556:	400a      	ands	r2, r1
 8000558:	605a      	str	r2, [r3, #4]
		GPIO_Config->GPIO_Port->OTYPER |= ((GPIO_Config->GPIO_OTYPE) << pin);
 800055a:	687b      	ldr	r3, [r7, #4]
 800055c:	689b      	ldr	r3, [r3, #8]
 800055e:	685a      	ldr	r2, [r3, #4]
 8000560:	687b      	ldr	r3, [r7, #4]
 8000562:	789b      	ldrb	r3, [r3, #2]
 8000564:	4619      	mov	r1, r3
 8000566:	7bfb      	ldrb	r3, [r7, #15]
 8000568:	fa01 f303 	lsl.w	r3, r1, r3
 800056c:	4619      	mov	r1, r3
 800056e:	687b      	ldr	r3, [r7, #4]
 8000570:	689b      	ldr	r3, [r3, #8]
 8000572:	430a      	orrs	r2, r1
 8000574:	605a      	str	r2, [r3, #4]
		GPIO_Config->GPIO_Port->OSPEEDR &= ~(GPIO_OSpeed_Reset << (pin * 2));
 8000576:	687b      	ldr	r3, [r7, #4]
 8000578:	689b      	ldr	r3, [r3, #8]
 800057a:	689a      	ldr	r2, [r3, #8]
 800057c:	7bfb      	ldrb	r3, [r7, #15]
 800057e:	005b      	lsls	r3, r3, #1
 8000580:	2101      	movs	r1, #1
 8000582:	fa01 f303 	lsl.w	r3, r1, r3
 8000586:	43db      	mvns	r3, r3
 8000588:	4619      	mov	r1, r3
 800058a:	687b      	ldr	r3, [r7, #4]
 800058c:	689b      	ldr	r3, [r3, #8]
 800058e:	400a      	ands	r2, r1
 8000590:	609a      	str	r2, [r3, #8]
		GPIO_Config->GPIO_Port->OSPEEDR |= ((GPIO_Config->GPIO_OSPEED) << (pin * 2));
 8000592:	687b      	ldr	r3, [r7, #4]
 8000594:	689b      	ldr	r3, [r3, #8]
 8000596:	689a      	ldr	r2, [r3, #8]
 8000598:	687b      	ldr	r3, [r7, #4]
 800059a:	78db      	ldrb	r3, [r3, #3]
 800059c:	4619      	mov	r1, r3
 800059e:	7bfb      	ldrb	r3, [r7, #15]
 80005a0:	005b      	lsls	r3, r3, #1
 80005a2:	fa01 f303 	lsl.w	r3, r1, r3
 80005a6:	4619      	mov	r1, r3
 80005a8:	687b      	ldr	r3, [r7, #4]
 80005aa:	689b      	ldr	r3, [r3, #8]
 80005ac:	430a      	orrs	r2, r1
 80005ae:	609a      	str	r2, [r3, #8]
		GPIO_Config->GPIO_Port->PUPDR &= ~(GPIO_PUPD_Reset << (pin * 2));
 80005b0:	687b      	ldr	r3, [r7, #4]
 80005b2:	689b      	ldr	r3, [r3, #8]
 80005b4:	68da      	ldr	r2, [r3, #12]
 80005b6:	7bfb      	ldrb	r3, [r7, #15]
 80005b8:	005b      	lsls	r3, r3, #1
 80005ba:	2103      	movs	r1, #3
 80005bc:	fa01 f303 	lsl.w	r3, r1, r3
 80005c0:	43db      	mvns	r3, r3
 80005c2:	4619      	mov	r1, r3
 80005c4:	687b      	ldr	r3, [r7, #4]
 80005c6:	689b      	ldr	r3, [r3, #8]
 80005c8:	400a      	ands	r2, r1
 80005ca:	60da      	str	r2, [r3, #12]
		GPIO_Config->GPIO_Port->PUPDR |= ((GPIO_Config->GPIO_PUPD) << (pin * 2));
 80005cc:	687b      	ldr	r3, [r7, #4]
 80005ce:	689b      	ldr	r3, [r3, #8]
 80005d0:	68da      	ldr	r2, [r3, #12]
 80005d2:	687b      	ldr	r3, [r7, #4]
 80005d4:	791b      	ldrb	r3, [r3, #4]
 80005d6:	4619      	mov	r1, r3
 80005d8:	7bfb      	ldrb	r3, [r7, #15]
 80005da:	005b      	lsls	r3, r3, #1
 80005dc:	fa01 f303 	lsl.w	r3, r1, r3
 80005e0:	4619      	mov	r1, r3
 80005e2:	687b      	ldr	r3, [r7, #4]
 80005e4:	689b      	ldr	r3, [r3, #8]
 80005e6:	430a      	orrs	r2, r1
 80005e8:	60da      	str	r2, [r3, #12]
}
 80005ea:	bf00      	nop
 80005ec:	3710      	adds	r7, #16
 80005ee:	46bd      	mov	sp, r7
 80005f0:	bd80      	pop	{r7, pc}
 80005f2:	bf00      	nop
 80005f4:	40020000 	.word	0x40020000

080005f8 <Enable_I2C_Periph>:

/*
 * @brief	A helper function used to activate the correct pins for the I2C peripheral.
 */
static void Enable_I2C_Periph(GPIO_TypeDef *GPIOx, uint8_t pin, AFR_Config_t alt_function)
{
 80005f8:	b580      	push	{r7, lr}
 80005fa:	b08a      	sub	sp, #40	; 0x28
 80005fc:	af04      	add	r7, sp, #16
 80005fe:	6078      	str	r0, [r7, #4]
 8000600:	460b      	mov	r3, r1
 8000602:	70fb      	strb	r3, [r7, #3]
 8000604:	4613      	mov	r3, r2
 8000606:	70bb      	strb	r3, [r7, #2]
	GPIO_Config_t I2C_Periph;
	GPIO_Config(&I2C_Periph, GPIOx, pin, GPIO_AF, GPIO_OpenDrain, GPIO_LowSpeed, GPIO_PullUp);
 8000608:	78fa      	ldrb	r2, [r7, #3]
 800060a:	f107 000c 	add.w	r0, r7, #12
 800060e:	2301      	movs	r3, #1
 8000610:	9302      	str	r3, [sp, #8]
 8000612:	2300      	movs	r3, #0
 8000614:	9301      	str	r3, [sp, #4]
 8000616:	2301      	movs	r3, #1
 8000618:	9300      	str	r3, [sp, #0]
 800061a:	2302      	movs	r3, #2
 800061c:	6879      	ldr	r1, [r7, #4]
 800061e:	f7ff fdd9 	bl	80001d4 <GPIO_Config>
	GPIO_Init(&I2C_Periph, alt_function);
 8000622:	78ba      	ldrb	r2, [r7, #2]
 8000624:	f107 030c 	add.w	r3, r7, #12
 8000628:	4611      	mov	r1, r2
 800062a:	4618      	mov	r0, r3
 800062c:	f7ff feba 	bl	80003a4 <GPIO_Init>
}
 8000630:	bf00      	nop
 8000632:	3718      	adds	r7, #24
 8000634:	46bd      	mov	sp, r7
 8000636:	bd80      	pop	{r7, pc}

08000638 <Generate_Start_Condition>:

/*
 * @brief	A helper function that generates the start condition.
 */
static void Generate_Start_Condition(I2C_Handle_t *I2C_Handle)
{
 8000638:	b480      	push	{r7}
 800063a:	b083      	sub	sp, #12
 800063c:	af00      	add	r7, sp, #0
 800063e:	6078      	str	r0, [r7, #4]
	I2C_Handle->I2Cx->CR1 |= CR1_Start;
 8000640:	687b      	ldr	r3, [r7, #4]
 8000642:	68db      	ldr	r3, [r3, #12]
 8000644:	681a      	ldr	r2, [r3, #0]
 8000646:	687b      	ldr	r3, [r7, #4]
 8000648:	68db      	ldr	r3, [r3, #12]
 800064a:	f442 7280 	orr.w	r2, r2, #256	; 0x100
 800064e:	601a      	str	r2, [r3, #0]
}
 8000650:	bf00      	nop
 8000652:	370c      	adds	r7, #12
 8000654:	46bd      	mov	sp, r7
 8000656:	f85d 7b04 	ldr.w	r7, [sp], #4
 800065a:	4770      	bx	lr

0800065c <Check_Flag>:

/*
 * brief	A helper function that keeps track of specific flags in the status register
 */
static Flag_Status Check_Flag(I2C_Handle_t *I2C_Handle, uint32_t flag)
{
 800065c:	b480      	push	{r7}
 800065e:	b083      	sub	sp, #12
 8000660:	af00      	add	r7, sp, #0
 8000662:	6078      	str	r0, [r7, #4]
 8000664:	6039      	str	r1, [r7, #0]
	if(I2C_Handle->I2Cx->SR1 & flag)
 8000666:	687b      	ldr	r3, [r7, #4]
 8000668:	68db      	ldr	r3, [r3, #12]
 800066a:	695a      	ldr	r2, [r3, #20]
 800066c:	683b      	ldr	r3, [r7, #0]
 800066e:	4013      	ands	r3, r2
 8000670:	2b00      	cmp	r3, #0
 8000672:	d001      	beq.n	8000678 <Check_Flag+0x1c>
	{
		return Flag_Set;
 8000674:	2301      	movs	r3, #1
 8000676:	e000      	b.n	800067a <Check_Flag+0x1e>
	}

	else
	{
		return Flag_Unset;
 8000678:	2300      	movs	r3, #0
	}

}
 800067a:	4618      	mov	r0, r3
 800067c:	370c      	adds	r7, #12
 800067e:	46bd      	mov	sp, r7
 8000680:	f85d 7b04 	ldr.w	r7, [sp], #4
 8000684:	4770      	bx	lr

08000686 <Generate_Stop_Condition>:

/*
 * brief	A helper function that generates a stop condition
 */
static void Generate_Stop_Condition(I2C_Handle_t *I2C_Handle)
{
 8000686:	b480      	push	{r7}
 8000688:	b083      	sub	sp, #12
 800068a:	af00      	add	r7, sp, #0
 800068c:	6078      	str	r0, [r7, #4]
	I2C_Handle->I2Cx->CR1 |= CR1_STOP;
 800068e:	687b      	ldr	r3, [r7, #4]
 8000690:	68db      	ldr	r3, [r3, #12]
 8000692:	681a      	ldr	r2, [r3, #0]
 8000694:	687b      	ldr	r3, [r7, #4]
 8000696:	68db      	ldr	r3, [r3, #12]
 8000698:	f442 7200 	orr.w	r2, r2, #512	; 0x200
 800069c:	601a      	str	r2, [r3, #0]
}
 800069e:	bf00      	nop
 80006a0:	370c      	adds	r7, #12
 80006a2:	46bd      	mov	sp, r7
 80006a4:	f85d 7b04 	ldr.w	r7, [sp], #4
 80006a8:	4770      	bx	lr

080006aa <Send_Slave_Address>:

/*
 * @brief	A helper function used to send the slave address with either a read or write in the LSB
 */
static void Send_Slave_Address(I2C_Handle_t *I2C_Handle, uint8_t slave_address, uint8_t read_or_write)
{
 80006aa:	b480      	push	{r7}
 80006ac:	b083      	sub	sp, #12
 80006ae:	af00      	add	r7, sp, #0
 80006b0:	6078      	str	r0, [r7, #4]
 80006b2:	460b      	mov	r3, r1
 80006b4:	70fb      	strb	r3, [r7, #3]
 80006b6:	4613      	mov	r3, r2
 80006b8:	70bb      	strb	r3, [r7, #2]
	//Determine whether read or write mode is active first
	if(read_or_write == I2C_Read)
 80006ba:	78bb      	ldrb	r3, [r7, #2]
 80006bc:	2b01      	cmp	r3, #1
 80006be:	d10a      	bne.n	80006d6 <Send_Slave_Address+0x2c>
	{
		//If the user wishes to read data, append a 1 to the end of the address
		slave_address = ((slave_address << 1) | (I2C_Read << 0U));
 80006c0:	78fb      	ldrb	r3, [r7, #3]
 80006c2:	005b      	lsls	r3, r3, #1
 80006c4:	b2db      	uxtb	r3, r3
 80006c6:	f043 0301 	orr.w	r3, r3, #1
 80006ca:	70fb      	strb	r3, [r7, #3]
		I2C_Handle->I2Cx->DR = slave_address;
 80006cc:	687b      	ldr	r3, [r7, #4]
 80006ce:	68db      	ldr	r3, [r3, #12]
 80006d0:	78fa      	ldrb	r2, [r7, #3]
 80006d2:	611a      	str	r2, [r3, #16]
		//If the user wishes to write data append a 0 to the end of the address
		slave_address = ((slave_address << 1) | (I2C_Write << 0U));
		I2C_Handle->I2Cx->DR = slave_address;
	}

}
 80006d4:	e006      	b.n	80006e4 <Send_Slave_Address+0x3a>
		slave_address = ((slave_address << 1) | (I2C_Write << 0U));
 80006d6:	78fb      	ldrb	r3, [r7, #3]
 80006d8:	005b      	lsls	r3, r3, #1
 80006da:	70fb      	strb	r3, [r7, #3]
		I2C_Handle->I2Cx->DR = slave_address;
 80006dc:	687b      	ldr	r3, [r7, #4]
 80006de:	68db      	ldr	r3, [r3, #12]
 80006e0:	78fa      	ldrb	r2, [r7, #3]
 80006e2:	611a      	str	r2, [r3, #16]
}
 80006e4:	bf00      	nop
 80006e6:	370c      	adds	r7, #12
 80006e8:	46bd      	mov	sp, r7
 80006ea:	f85d 7b04 	ldr.w	r7, [sp], #4
 80006ee:	4770      	bx	lr

080006f0 <Clear_Addr_Flag>:

/*
 * @brief	A helper function that clears the Addr flag
 */
static void Clear_Addr_Flag(I2C_Handle_t *I2C_Handle)
{
 80006f0:	b480      	push	{r7}
 80006f2:	b085      	sub	sp, #20
 80006f4:	af00      	add	r7, sp, #0
 80006f6:	6078      	str	r0, [r7, #4]
	uint32_t temporary_variable = 0;
 80006f8:	2300      	movs	r3, #0
 80006fa:	60fb      	str	r3, [r7, #12]

	//Clear the addr flag
	temporary_variable = I2C_Handle->I2Cx->SR1;
 80006fc:	687b      	ldr	r3, [r7, #4]
 80006fe:	68db      	ldr	r3, [r3, #12]
 8000700:	695b      	ldr	r3, [r3, #20]
 8000702:	60fb      	str	r3, [r7, #12]
	temporary_variable = I2C_Handle->I2Cx->SR2;
 8000704:	687b      	ldr	r3, [r7, #4]
 8000706:	68db      	ldr	r3, [r3, #12]
 8000708:	699b      	ldr	r3, [r3, #24]
 800070a:	60fb      	str	r3, [r7, #12]

}
 800070c:	bf00      	nop
 800070e:	3714      	adds	r7, #20
 8000710:	46bd      	mov	sp, r7
 8000712:	f85d 7b04 	ldr.w	r7, [sp], #4
 8000716:	4770      	bx	lr

08000718 <I2C_Config>:

/*
 * @brief	Configures the I2C data structure with user input, avoids use of the dot operator in the main program.
 */
void I2C_Config(I2C_Handle_t *I2C_Handle, I2C_TypeDef *I2Cx, uint32_t scl_speed, uint8_t duty_cycle, uint8_t pin_scl, uint8_t pin_sda)
{
 8000718:	b480      	push	{r7}
 800071a:	b085      	sub	sp, #20
 800071c:	af00      	add	r7, sp, #0
 800071e:	60f8      	str	r0, [r7, #12]
 8000720:	60b9      	str	r1, [r7, #8]
 8000722:	607a      	str	r2, [r7, #4]
 8000724:	70fb      	strb	r3, [r7, #3]
	I2C_Handle->I2Cx = I2Cx;
 8000726:	68fb      	ldr	r3, [r7, #12]
 8000728:	68ba      	ldr	r2, [r7, #8]
 800072a:	60da      	str	r2, [r3, #12]
	I2C_Handle->I2C_Config.scl_speed = scl_speed;
 800072c:	68fb      	ldr	r3, [r7, #12]
 800072e:	687a      	ldr	r2, [r7, #4]
 8000730:	605a      	str	r2, [r3, #4]
	I2C_Handle->I2C_Config.fm_dutycycle = duty_cycle;
 8000732:	68fb      	ldr	r3, [r7, #12]
 8000734:	78fa      	ldrb	r2, [r7, #3]
 8000736:	721a      	strb	r2, [r3, #8]
	I2C_Handle->I2C_Config.pin_scl = pin_scl;
 8000738:	68fb      	ldr	r3, [r7, #12]
 800073a:	7e3a      	ldrb	r2, [r7, #24]
 800073c:	725a      	strb	r2, [r3, #9]
	I2C_Handle->I2C_Config.pin_sda = pin_sda;
 800073e:	68fb      	ldr	r3, [r7, #12]
 8000740:	7f3a      	ldrb	r2, [r7, #28]
 8000742:	729a      	strb	r2, [r3, #10]
}
 8000744:	bf00      	nop
 8000746:	3714      	adds	r7, #20
 8000748:	46bd      	mov	sp, r7
 800074a:	f85d 7b04 	ldr.w	r7, [sp], #4
 800074e:	4770      	bx	lr

08000750 <I2C_DeInit>:

/*
 * @brief	Deinitializes the I2C by resetting the I2Cx bus.
 */
void I2C_DeInit(I2C_Handle_t *I2C_Handle)
{
 8000750:	b480      	push	{r7}
 8000752:	b083      	sub	sp, #12
 8000754:	af00      	add	r7, sp, #0
 8000756:	6078      	str	r0, [r7, #4]
	if(I2C_Handle->I2Cx == I2C1)
 8000758:	687b      	ldr	r3, [r7, #4]
 800075a:	68db      	ldr	r3, [r3, #12]
 800075c:	4a19      	ldr	r2, [pc, #100]	; (80007c4 <I2C_DeInit+0x74>)
 800075e:	4293      	cmp	r3, r2
 8000760:	d10c      	bne.n	800077c <I2C_DeInit+0x2c>
	{
		RCC->APB1RSTR |= I2C1RST;
 8000762:	4b19      	ldr	r3, [pc, #100]	; (80007c8 <I2C_DeInit+0x78>)
 8000764:	6a1b      	ldr	r3, [r3, #32]
 8000766:	4a18      	ldr	r2, [pc, #96]	; (80007c8 <I2C_DeInit+0x78>)
 8000768:	f443 1300 	orr.w	r3, r3, #2097152	; 0x200000
 800076c:	6213      	str	r3, [r2, #32]
		RCC->APB1RSTR &= ~I2C1RST;
 800076e:	4b16      	ldr	r3, [pc, #88]	; (80007c8 <I2C_DeInit+0x78>)
 8000770:	6a1b      	ldr	r3, [r3, #32]
 8000772:	4a15      	ldr	r2, [pc, #84]	; (80007c8 <I2C_DeInit+0x78>)
 8000774:	f423 1300 	bic.w	r3, r3, #2097152	; 0x200000
 8000778:	6213      	str	r3, [r2, #32]
	else
	{
		RCC->APB1RSTR |= I2C3RST;
		RCC->APB1RSTR &= ~I2C3RST;
	}
}
 800077a:	e01d      	b.n	80007b8 <I2C_DeInit+0x68>
	else if(I2C_Handle->I2Cx == I2C2)
 800077c:	687b      	ldr	r3, [r7, #4]
 800077e:	68db      	ldr	r3, [r3, #12]
 8000780:	4a12      	ldr	r2, [pc, #72]	; (80007cc <I2C_DeInit+0x7c>)
 8000782:	4293      	cmp	r3, r2
 8000784:	d10c      	bne.n	80007a0 <I2C_DeInit+0x50>
		RCC->APB1RSTR |= I2C2RST;
 8000786:	4b10      	ldr	r3, [pc, #64]	; (80007c8 <I2C_DeInit+0x78>)
 8000788:	6a1b      	ldr	r3, [r3, #32]
 800078a:	4a0f      	ldr	r2, [pc, #60]	; (80007c8 <I2C_DeInit+0x78>)
 800078c:	f443 0380 	orr.w	r3, r3, #4194304	; 0x400000
 8000790:	6213      	str	r3, [r2, #32]
		RCC->APB1RSTR &= ~I2C2RST;
 8000792:	4b0d      	ldr	r3, [pc, #52]	; (80007c8 <I2C_DeInit+0x78>)
 8000794:	6a1b      	ldr	r3, [r3, #32]
 8000796:	4a0c      	ldr	r2, [pc, #48]	; (80007c8 <I2C_DeInit+0x78>)
 8000798:	f423 0380 	bic.w	r3, r3, #4194304	; 0x400000
 800079c:	6213      	str	r3, [r2, #32]
}
 800079e:	e00b      	b.n	80007b8 <I2C_DeInit+0x68>
		RCC->APB1RSTR |= I2C3RST;
 80007a0:	4b09      	ldr	r3, [pc, #36]	; (80007c8 <I2C_DeInit+0x78>)
 80007a2:	6a1b      	ldr	r3, [r3, #32]
 80007a4:	4a08      	ldr	r2, [pc, #32]	; (80007c8 <I2C_DeInit+0x78>)
 80007a6:	f443 0300 	orr.w	r3, r3, #8388608	; 0x800000
 80007aa:	6213      	str	r3, [r2, #32]
		RCC->APB1RSTR &= ~I2C3RST;
 80007ac:	4b06      	ldr	r3, [pc, #24]	; (80007c8 <I2C_DeInit+0x78>)
 80007ae:	6a1b      	ldr	r3, [r3, #32]
 80007b0:	4a05      	ldr	r2, [pc, #20]	; (80007c8 <I2C_DeInit+0x78>)
 80007b2:	f423 0300 	bic.w	r3, r3, #8388608	; 0x800000
 80007b6:	6213      	str	r3, [r2, #32]
}
 80007b8:	bf00      	nop
 80007ba:	370c      	adds	r7, #12
 80007bc:	46bd      	mov	sp, r7
 80007be:	f85d 7b04 	ldr.w	r7, [sp], #4
 80007c2:	4770      	bx	lr
 80007c4:	40005400 	.word	0x40005400
 80007c8:	40023800 	.word	0x40023800
 80007cc:	40005800 	.word	0x40005800

080007d0 <I2C_Init>:

/*
 * @brief	Initializes the I2C clock speeds using the CCR and Trise register and turns the I2C1 peripheral on.
 */
void I2C_Init(I2C_Handle_t *I2C_Handle)
{
 80007d0:	b580      	push	{r7, lr}
 80007d2:	b088      	sub	sp, #32
 80007d4:	af00      	add	r7, sp, #0
 80007d6:	6078      	str	r0, [r7, #4]
	RCC_ClockFrequency_t ClockSource;

	uint16_t ccr_value;
	uint8_t trise_value;

	if(I2C_Handle->I2Cx == I2C1)
 80007d8:	687b      	ldr	r3, [r7, #4]
 80007da:	68db      	ldr	r3, [r3, #12]
 80007dc:	4a69      	ldr	r2, [pc, #420]	; (8000984 <I2C_Init+0x1b4>)
 80007de:	4293      	cmp	r3, r2
 80007e0:	d113      	bne.n	800080a <I2C_Init+0x3a>
	{
		//Enable I2C1_SDA Line
		Enable_I2C_Periph(GPIOB, (I2C_Handle->I2C_Config.pin_sda), AF4);
 80007e2:	687b      	ldr	r3, [r7, #4]
 80007e4:	7a9b      	ldrb	r3, [r3, #10]
 80007e6:	2204      	movs	r2, #4
 80007e8:	4619      	mov	r1, r3
 80007ea:	4867      	ldr	r0, [pc, #412]	; (8000988 <I2C_Init+0x1b8>)
 80007ec:	f7ff ff04 	bl	80005f8 <Enable_I2C_Periph>
		//Enable I2C1_SCL Line
		Enable_I2C_Periph(GPIOB, (I2C_Handle->I2C_Config.pin_scl), AF4);
 80007f0:	687b      	ldr	r3, [r7, #4]
 80007f2:	7a5b      	ldrb	r3, [r3, #9]
 80007f4:	2204      	movs	r2, #4
 80007f6:	4619      	mov	r1, r3
 80007f8:	4863      	ldr	r0, [pc, #396]	; (8000988 <I2C_Init+0x1b8>)
 80007fa:	f7ff fefd 	bl	80005f8 <Enable_I2C_Periph>
		//Enable Clock Access to I2C1
		RCC_APB1Cmd(I2C1_Enable, ENABLE);
 80007fe:	2101      	movs	r1, #1
 8000800:	f44f 1000 	mov.w	r0, #2097152	; 0x200000
 8000804:	f000 f9d0 	bl	8000ba8 <RCC_APB1Cmd>
 8000808:	e023      	b.n	8000852 <I2C_Init+0x82>
	}

	else if(I2C_Handle->I2Cx == I2C2)
 800080a:	687b      	ldr	r3, [r7, #4]
 800080c:	68db      	ldr	r3, [r3, #12]
 800080e:	4a5f      	ldr	r2, [pc, #380]	; (800098c <I2C_Init+0x1bc>)
 8000810:	4293      	cmp	r3, r2
 8000812:	d10f      	bne.n	8000834 <I2C_Init+0x64>
	{
		//Enable I2C2_SCL Line for PB10
		Enable_I2C_Periph(GPIOB, 10, AF4);
 8000814:	2204      	movs	r2, #4
 8000816:	210a      	movs	r1, #10
 8000818:	485b      	ldr	r0, [pc, #364]	; (8000988 <I2C_Init+0x1b8>)
 800081a:	f7ff feed 	bl	80005f8 <Enable_I2C_Periph>
		//Enable I2C2_SDA Line for PB3
		Enable_I2C_Periph(GPIOB, 3, AF9);
 800081e:	2209      	movs	r2, #9
 8000820:	2103      	movs	r1, #3
 8000822:	4859      	ldr	r0, [pc, #356]	; (8000988 <I2C_Init+0x1b8>)
 8000824:	f7ff fee8 	bl	80005f8 <Enable_I2C_Periph>
		//Enable Clock Access to I2C2
		RCC_APB1Cmd(I2C2_Enable, ENABLE);
 8000828:	2101      	movs	r1, #1
 800082a:	f44f 0080 	mov.w	r0, #4194304	; 0x400000
 800082e:	f000 f9bb 	bl	8000ba8 <RCC_APB1Cmd>
 8000832:	e00e      	b.n	8000852 <I2C_Init+0x82>
	}

	else
	{
		//Enable I2C3_SCL Line for PA8
		Enable_I2C_Periph(GPIOA, 3, AF4);
 8000834:	2204      	movs	r2, #4
 8000836:	2103      	movs	r1, #3
 8000838:	4855      	ldr	r0, [pc, #340]	; (8000990 <I2C_Init+0x1c0>)
 800083a:	f7ff fedd 	bl	80005f8 <Enable_I2C_Periph>
		//Enable I2C3_SDA Line for PC9
		Enable_I2C_Periph(GPIOC, 9, AF9);
 800083e:	2209      	movs	r2, #9
 8000840:	2109      	movs	r1, #9
 8000842:	4854      	ldr	r0, [pc, #336]	; (8000994 <I2C_Init+0x1c4>)
 8000844:	f7ff fed8 	bl	80005f8 <Enable_I2C_Periph>
		//Enable Clock Access to I2C3
		RCC_APB1Cmd(I2C3_Enable, ENABLE);
 8000848:	2101      	movs	r1, #1
 800084a:	f44f 0000 	mov.w	r0, #8388608	; 0x800000
 800084e:	f000 f9ab 	bl	8000ba8 <RCC_APB1Cmd>

	//I2C_Handle->I2Cx->CR1 |= CR1_SWRST;
	//I2C_Handle->I2Cx->CR1 &= ~CR1_SWRST;

	//Determining Peripheral Clock Speed
	RCC_GetClockFreq(&ClockSource);
 8000852:	f107 030c 	add.w	r3, r7, #12
 8000856:	4618      	mov	r0, r3
 8000858:	f000 f9e6 	bl	8000c28 <RCC_GetClockFreq>
	I2C_Handle->I2C_Config.peripheral_clk = (ClockSource.PCLCK1)/1000000U & (0x3F);
 800085c:	697b      	ldr	r3, [r7, #20]
 800085e:	4a4e      	ldr	r2, [pc, #312]	; (8000998 <I2C_Init+0x1c8>)
 8000860:	fba2 2303 	umull	r2, r3, r2, r3
 8000864:	0c9b      	lsrs	r3, r3, #18
 8000866:	b2db      	uxtb	r3, r3
 8000868:	f003 033f 	and.w	r3, r3, #63	; 0x3f
 800086c:	b2da      	uxtb	r2, r3
 800086e:	687b      	ldr	r3, [r7, #4]
 8000870:	701a      	strb	r2, [r3, #0]
	I2C_Handle->I2Cx->CR2 |= (I2C_Handle->I2C_Config.peripheral_clk) << CR2_Freq_Pos;
 8000872:	687b      	ldr	r3, [r7, #4]
 8000874:	68db      	ldr	r3, [r3, #12]
 8000876:	685a      	ldr	r2, [r3, #4]
 8000878:	687b      	ldr	r3, [r7, #4]
 800087a:	781b      	ldrb	r3, [r3, #0]
 800087c:	4619      	mov	r1, r3
 800087e:	687b      	ldr	r3, [r7, #4]
 8000880:	68db      	ldr	r3, [r3, #12]
 8000882:	430a      	orrs	r2, r1
 8000884:	605a      	str	r2, [r3, #4]

	//CCR Calculations:

	//Check for standard mode
	if(I2C_Handle->I2C_Config.scl_speed <= SM_100KHZ)
 8000886:	687b      	ldr	r3, [r7, #4]
 8000888:	685b      	ldr	r3, [r3, #4]
 800088a:	4a44      	ldr	r2, [pc, #272]	; (800099c <I2C_Init+0x1cc>)
 800088c:	4293      	cmp	r3, r2
 800088e:	d817      	bhi.n	80008c0 <I2C_Init+0xf0>
	{
		//Clear the fast mode bit ensuring it is set to 0 (set to standard mode)
		I2C_Handle->I2Cx->CCR &= ~CCR_Speed_FM_Mode;
 8000890:	687b      	ldr	r3, [r7, #4]
 8000892:	68db      	ldr	r3, [r3, #12]
 8000894:	69da      	ldr	r2, [r3, #28]
 8000896:	687b      	ldr	r3, [r7, #4]
 8000898:	68db      	ldr	r3, [r3, #12]
 800089a:	f422 4200 	bic.w	r2, r2, #32768	; 0x8000
 800089e:	61da      	str	r2, [r3, #28]
		//In standard mode, the duty cycle is 50%
		ccr_value = (ClockSource.PCLCK1)/(2 * (I2C_Handle->I2C_Config.scl_speed));
 80008a0:	697a      	ldr	r2, [r7, #20]
 80008a2:	687b      	ldr	r3, [r7, #4]
 80008a4:	685b      	ldr	r3, [r3, #4]
 80008a6:	005b      	lsls	r3, r3, #1
 80008a8:	fbb2 f3f3 	udiv	r3, r2, r3
 80008ac:	83fb      	strh	r3, [r7, #30]

		//calculate the Trise value
		trise_value = ((ClockSource.PCLCK1)/(MAX_SM_TRISE_FREQ)) + 1;
 80008ae:	697b      	ldr	r3, [r7, #20]
 80008b0:	4a39      	ldr	r2, [pc, #228]	; (8000998 <I2C_Init+0x1c8>)
 80008b2:	fba2 2303 	umull	r2, r3, r2, r3
 80008b6:	0c9b      	lsrs	r3, r3, #18
 80008b8:	b2db      	uxtb	r3, r3
 80008ba:	3301      	adds	r3, #1
 80008bc:	777b      	strb	r3, [r7, #29]
 80008be:	e044      	b.n	800094a <I2C_Init+0x17a>

	//Check for fast mode
	else
	{
		//Set I2C to fast mode
		I2C_Handle->I2Cx->CCR |= CCR_Speed_FM_Mode;
 80008c0:	687b      	ldr	r3, [r7, #4]
 80008c2:	68db      	ldr	r3, [r3, #12]
 80008c4:	69da      	ldr	r2, [r3, #28]
 80008c6:	687b      	ldr	r3, [r7, #4]
 80008c8:	68db      	ldr	r3, [r3, #12]
 80008ca:	f442 4200 	orr.w	r2, r2, #32768	; 0x8000
 80008ce:	61da      	str	r2, [r3, #28]

		if(I2C_Handle->I2C_Config.fm_dutycycle == FM_DUTY_2)
 80008d0:	687b      	ldr	r3, [r7, #4]
 80008d2:	7a1b      	ldrb	r3, [r3, #8]
 80008d4:	2b00      	cmp	r3, #0
 80008d6:	d116      	bne.n	8000906 <I2C_Init+0x136>
		{
			//Clear the Duty cycle bit so it is set to 0 (which means duty cycle of 2)
			I2C_Handle->I2Cx->CCR &= ~FM_DUTY_16_9;
 80008d8:	687b      	ldr	r3, [r7, #4]
 80008da:	68db      	ldr	r3, [r3, #12]
 80008dc:	69da      	ldr	r2, [r3, #28]
 80008de:	687b      	ldr	r3, [r7, #4]
 80008e0:	68db      	ldr	r3, [r3, #12]
 80008e2:	f422 4280 	bic.w	r2, r2, #16384	; 0x4000
 80008e6:	61da      	str	r2, [r3, #28]
			ccr_value = ((I2C_Handle->I2C_Config.peripheral_clk)/(3 * I2C_Handle->I2C_Config.scl_speed)) & (0xFFF);
 80008e8:	687b      	ldr	r3, [r7, #4]
 80008ea:	781b      	ldrb	r3, [r3, #0]
 80008ec:	4619      	mov	r1, r3
 80008ee:	687b      	ldr	r3, [r7, #4]
 80008f0:	685a      	ldr	r2, [r3, #4]
 80008f2:	4613      	mov	r3, r2
 80008f4:	005b      	lsls	r3, r3, #1
 80008f6:	4413      	add	r3, r2
 80008f8:	fbb1 f3f3 	udiv	r3, r1, r3
 80008fc:	b29b      	uxth	r3, r3
 80008fe:	f3c3 030b 	ubfx	r3, r3, #0, #12
 8000902:	83fb      	strh	r3, [r7, #30]
 8000904:	e017      	b.n	8000936 <I2C_Init+0x166>
		}

		else
		{
			//Set duty cycle and calculate CCR value
			I2C_Handle->I2Cx->CCR |= FM_DUTY_16_9;
 8000906:	687b      	ldr	r3, [r7, #4]
 8000908:	68db      	ldr	r3, [r3, #12]
 800090a:	69da      	ldr	r2, [r3, #28]
 800090c:	687b      	ldr	r3, [r7, #4]
 800090e:	68db      	ldr	r3, [r3, #12]
 8000910:	f442 4280 	orr.w	r2, r2, #16384	; 0x4000
 8000914:	61da      	str	r2, [r3, #28]
			ccr_value = ((I2C_Handle->I2C_Config.peripheral_clk)/(25 * I2C_Handle->I2C_Config.scl_speed)) & (0xFFF);
 8000916:	687b      	ldr	r3, [r7, #4]
 8000918:	781b      	ldrb	r3, [r3, #0]
 800091a:	4619      	mov	r1, r3
 800091c:	687b      	ldr	r3, [r7, #4]
 800091e:	685a      	ldr	r2, [r3, #4]
 8000920:	4613      	mov	r3, r2
 8000922:	009b      	lsls	r3, r3, #2
 8000924:	4413      	add	r3, r2
 8000926:	009a      	lsls	r2, r3, #2
 8000928:	4413      	add	r3, r2
 800092a:	fbb1 f3f3 	udiv	r3, r1, r3
 800092e:	b29b      	uxth	r3, r3
 8000930:	f3c3 030b 	ubfx	r3, r3, #0, #12
 8000934:	83fb      	strh	r3, [r7, #30]
		}

		//calculate the Trise value
		trise_value = ((I2C_Handle->I2C_Config.peripheral_clk)/(MAX_FM_TRISE_FREQ)) + 1;
 8000936:	687b      	ldr	r3, [r7, #4]
 8000938:	781b      	ldrb	r3, [r3, #0]
 800093a:	461a      	mov	r2, r3
 800093c:	4b18      	ldr	r3, [pc, #96]	; (80009a0 <I2C_Init+0x1d0>)
 800093e:	fba3 2302 	umull	r2, r3, r3, r2
 8000942:	0d5b      	lsrs	r3, r3, #21
 8000944:	b2db      	uxtb	r3, r3
 8000946:	3301      	adds	r3, #1
 8000948:	777b      	strb	r3, [r7, #29]

	}

	//Set CCR and Trise register values
	I2C_Handle->I2Cx->CCR |= (ccr_value & 0xFFF) << CCR_CCR_Pos;
 800094a:	687b      	ldr	r3, [r7, #4]
 800094c:	68db      	ldr	r3, [r3, #12]
 800094e:	69d9      	ldr	r1, [r3, #28]
 8000950:	8bfb      	ldrh	r3, [r7, #30]
 8000952:	f3c3 020b 	ubfx	r2, r3, #0, #12
 8000956:	687b      	ldr	r3, [r7, #4]
 8000958:	68db      	ldr	r3, [r3, #12]
 800095a:	430a      	orrs	r2, r1
 800095c:	61da      	str	r2, [r3, #28]
	I2C_Handle->I2Cx->TRISE = (trise_value & 0x1F);
 800095e:	7f7a      	ldrb	r2, [r7, #29]
 8000960:	687b      	ldr	r3, [r7, #4]
 8000962:	68db      	ldr	r3, [r3, #12]
 8000964:	f002 021f 	and.w	r2, r2, #31
 8000968:	621a      	str	r2, [r3, #32]


	//Enable Peripheral
	I2C_Handle->I2Cx->CR1 |= CR1_PE_Enable;
 800096a:	687b      	ldr	r3, [r7, #4]
 800096c:	68db      	ldr	r3, [r3, #12]
 800096e:	681a      	ldr	r2, [r3, #0]
 8000970:	687b      	ldr	r3, [r7, #4]
 8000972:	68db      	ldr	r3, [r3, #12]
 8000974:	f042 0201 	orr.w	r2, r2, #1
 8000978:	601a      	str	r2, [r3, #0]
}
 800097a:	bf00      	nop
 800097c:	3720      	adds	r7, #32
 800097e:	46bd      	mov	sp, r7
 8000980:	bd80      	pop	{r7, pc}
 8000982:	bf00      	nop
 8000984:	40005400 	.word	0x40005400
 8000988:	40020400 	.word	0x40020400
 800098c:	40005800 	.word	0x40005800
 8000990:	40020000 	.word	0x40020000
 8000994:	40020800 	.word	0x40020800
 8000998:	431bde83 	.word	0x431bde83
 800099c:	000186a0 	.word	0x000186a0
 80009a0:	a10fb0af 	.word	0xa10fb0af

080009a4 <I2C_MasterTransmit>:

/*
 * brief	A function that sends data from the MCU to the specified slave device - this is a blocking function.
 */
void I2C_MasterTransmit(I2C_Handle_t *I2C_Handle, uint8_t *TxData, uint8_t slave_address, uint8_t number_of_bytes, uint8_t restart_condition)
{
 80009a4:	b580      	push	{r7, lr}
 80009a6:	b084      	sub	sp, #16
 80009a8:	af00      	add	r7, sp, #0
 80009aa:	60f8      	str	r0, [r7, #12]
 80009ac:	60b9      	str	r1, [r7, #8]
 80009ae:	4611      	mov	r1, r2
 80009b0:	461a      	mov	r2, r3
 80009b2:	460b      	mov	r3, r1
 80009b4:	71fb      	strb	r3, [r7, #7]
 80009b6:	4613      	mov	r3, r2
 80009b8:	71bb      	strb	r3, [r7, #6]

	//Enable the ACK bit
	I2C_Handle->I2Cx->CR1 |= CR1_ACK_Enable;
 80009ba:	68fb      	ldr	r3, [r7, #12]
 80009bc:	68db      	ldr	r3, [r3, #12]
 80009be:	681a      	ldr	r2, [r3, #0]
 80009c0:	68fb      	ldr	r3, [r7, #12]
 80009c2:	68db      	ldr	r3, [r3, #12]
 80009c4:	f442 6280 	orr.w	r2, r2, #1024	; 0x400
 80009c8:	601a      	str	r2, [r3, #0]

	//Generate start condition
	Generate_Start_Condition(I2C_Handle);
 80009ca:	68f8      	ldr	r0, [r7, #12]
 80009cc:	f7ff fe34 	bl	8000638 <Generate_Start_Condition>
	//Ensure the SB flag is set indictaing start condition was generated
	while(!(Check_Flag(I2C_Handle, SR1_SB_Flag)));
 80009d0:	bf00      	nop
 80009d2:	2101      	movs	r1, #1
 80009d4:	68f8      	ldr	r0, [r7, #12]
 80009d6:	f7ff fe41 	bl	800065c <Check_Flag>
 80009da:	4603      	mov	r3, r0
 80009dc:	2b00      	cmp	r3, #0
 80009de:	d0f8      	beq.n	80009d2 <I2C_MasterTransmit+0x2e>

	//Send slave address
	Send_Slave_Address(I2C_Handle, slave_address, I2C_Write);
 80009e0:	79fb      	ldrb	r3, [r7, #7]
 80009e2:	2200      	movs	r2, #0
 80009e4:	4619      	mov	r1, r3
 80009e6:	68f8      	ldr	r0, [r7, #12]
 80009e8:	f7ff fe5f 	bl	80006aa <Send_Slave_Address>
	//Ensure the addr flag has been set indicating the end of address transmission
	while(!(Check_Flag(I2C_Handle, SR1_ADDR_Flag)));
 80009ec:	bf00      	nop
 80009ee:	2102      	movs	r1, #2
 80009f0:	68f8      	ldr	r0, [r7, #12]
 80009f2:	f7ff fe33 	bl	800065c <Check_Flag>
 80009f6:	4603      	mov	r3, r0
 80009f8:	2b00      	cmp	r3, #0
 80009fa:	d0f8      	beq.n	80009ee <I2C_MasterTransmit+0x4a>

	//Clear the address flag
	Clear_Addr_Flag(I2C_Handle);
 80009fc:	68f8      	ldr	r0, [r7, #12]
 80009fe:	f7ff fe77 	bl	80006f0 <Clear_Addr_Flag>

	while(number_of_bytes > 0)
 8000a02:	e012      	b.n	8000a2a <I2C_MasterTransmit+0x86>
	{
		while(!(Check_Flag(I2C_Handle, SR1_TXE_Flag)));
 8000a04:	bf00      	nop
 8000a06:	2180      	movs	r1, #128	; 0x80
 8000a08:	68f8      	ldr	r0, [r7, #12]
 8000a0a:	f7ff fe27 	bl	800065c <Check_Flag>
 8000a0e:	4603      	mov	r3, r0
 8000a10:	2b00      	cmp	r3, #0
 8000a12:	d0f8      	beq.n	8000a06 <I2C_MasterTransmit+0x62>

		I2C_Handle->I2Cx->DR = *TxData;
 8000a14:	68bb      	ldr	r3, [r7, #8]
 8000a16:	781a      	ldrb	r2, [r3, #0]
 8000a18:	68fb      	ldr	r3, [r7, #12]
 8000a1a:	68db      	ldr	r3, [r3, #12]
 8000a1c:	611a      	str	r2, [r3, #16]

		number_of_bytes--;
 8000a1e:	79bb      	ldrb	r3, [r7, #6]
 8000a20:	3b01      	subs	r3, #1
 8000a22:	71bb      	strb	r3, [r7, #6]

		TxData++;
 8000a24:	68bb      	ldr	r3, [r7, #8]
 8000a26:	3301      	adds	r3, #1
 8000a28:	60bb      	str	r3, [r7, #8]
	while(number_of_bytes > 0)
 8000a2a:	79bb      	ldrb	r3, [r7, #6]
 8000a2c:	2b00      	cmp	r3, #0
 8000a2e:	d1e9      	bne.n	8000a04 <I2C_MasterTransmit+0x60>
	}

	while(!(Check_Flag(I2C_Handle, SR1_TXE_Flag)));
 8000a30:	bf00      	nop
 8000a32:	2180      	movs	r1, #128	; 0x80
 8000a34:	68f8      	ldr	r0, [r7, #12]
 8000a36:	f7ff fe11 	bl	800065c <Check_Flag>
 8000a3a:	4603      	mov	r3, r0
 8000a3c:	2b00      	cmp	r3, #0
 8000a3e:	d0f8      	beq.n	8000a32 <I2C_MasterTransmit+0x8e>
	while(!(Check_Flag(I2C_Handle, SR1_BTF_Flag)));
 8000a40:	bf00      	nop
 8000a42:	2104      	movs	r1, #4
 8000a44:	68f8      	ldr	r0, [r7, #12]
 8000a46:	f7ff fe09 	bl	800065c <Check_Flag>
 8000a4a:	4603      	mov	r3, r0
 8000a4c:	2b00      	cmp	r3, #0
 8000a4e:	d0f8      	beq.n	8000a42 <I2C_MasterTransmit+0x9e>

	if(restart_condition == I2C_No_Restart)
 8000a50:	7e3b      	ldrb	r3, [r7, #24]
 8000a52:	2b00      	cmp	r3, #0
 8000a54:	d102      	bne.n	8000a5c <I2C_MasterTransmit+0xb8>
	{
		Generate_Stop_Condition(I2C_Handle);
 8000a56:	68f8      	ldr	r0, [r7, #12]
 8000a58:	f7ff fe15 	bl	8000686 <Generate_Stop_Condition>
	}



}
 8000a5c:	bf00      	nop
 8000a5e:	3710      	adds	r7, #16
 8000a60:	46bd      	mov	sp, r7
 8000a62:	bd80      	pop	{r7, pc}

08000a64 <I2C_MasterRecieve>:

void I2C_MasterRecieve(I2C_Handle_t *I2C_Handle, uint8_t *RxData, uint8_t slave_address, uint8_t number_of_bytes, uint8_t restart_condition)
{
 8000a64:	b580      	push	{r7, lr}
 8000a66:	b084      	sub	sp, #16
 8000a68:	af00      	add	r7, sp, #0
 8000a6a:	60f8      	str	r0, [r7, #12]
 8000a6c:	60b9      	str	r1, [r7, #8]
 8000a6e:	4611      	mov	r1, r2
 8000a70:	461a      	mov	r2, r3
 8000a72:	460b      	mov	r3, r1
 8000a74:	71fb      	strb	r3, [r7, #7]
 8000a76:	4613      	mov	r3, r2
 8000a78:	71bb      	strb	r3, [r7, #6]
	//Generate start condition and ensure the SB flag is raised
	Generate_Start_Condition(I2C_Handle);
 8000a7a:	68f8      	ldr	r0, [r7, #12]
 8000a7c:	f7ff fddc 	bl	8000638 <Generate_Start_Condition>
	while(!(Check_Flag(I2C_Handle, SR1_SB_Flag)));
 8000a80:	bf00      	nop
 8000a82:	2101      	movs	r1, #1
 8000a84:	68f8      	ldr	r0, [r7, #12]
 8000a86:	f7ff fde9 	bl	800065c <Check_Flag>
 8000a8a:	4603      	mov	r3, r0
 8000a8c:	2b00      	cmp	r3, #0
 8000a8e:	d0f8      	beq.n	8000a82 <I2C_MasterRecieve+0x1e>
	//PrintData(UART_Handle, "Start Bit Generated\n\r");

	//Send slave address with read as the LSB and ensure the addr flag is raised
	Send_Slave_Address(I2C_Handle, slave_address, I2C_Read);
 8000a90:	79fb      	ldrb	r3, [r7, #7]
 8000a92:	2201      	movs	r2, #1
 8000a94:	4619      	mov	r1, r3
 8000a96:	68f8      	ldr	r0, [r7, #12]
 8000a98:	f7ff fe07 	bl	80006aa <Send_Slave_Address>
	while(!(Check_Flag(I2C_Handle, SR1_ADDR_Flag)));
 8000a9c:	bf00      	nop
 8000a9e:	2102      	movs	r1, #2
 8000aa0:	68f8      	ldr	r0, [r7, #12]
 8000aa2:	f7ff fddb 	bl	800065c <Check_Flag>
 8000aa6:	4603      	mov	r3, r0
 8000aa8:	2b00      	cmp	r3, #0
 8000aaa:	d0f8      	beq.n	8000a9e <I2C_MasterRecieve+0x3a>
	//PrintData(UART_Handle, "Address flag raised.\n\r");

	if(number_of_bytes == 1)
 8000aac:	79bb      	ldrb	r3, [r7, #6]
 8000aae:	2b01      	cmp	r3, #1
 8000ab0:	d11e      	bne.n	8000af0 <I2C_MasterRecieve+0x8c>
	{
		//PrintData(UART_Handle, "number of bytes = 1.\n\r");

		I2C_Handle->I2Cx->CR1 &= ~(CR1_ACK_Enable);
 8000ab2:	68fb      	ldr	r3, [r7, #12]
 8000ab4:	68db      	ldr	r3, [r3, #12]
 8000ab6:	681a      	ldr	r2, [r3, #0]
 8000ab8:	68fb      	ldr	r3, [r7, #12]
 8000aba:	68db      	ldr	r3, [r3, #12]
 8000abc:	f422 6280 	bic.w	r2, r2, #1024	; 0x400
 8000ac0:	601a      	str	r2, [r3, #0]
		//PrintData(UART_Handle, "ACK disabled.\n\r");

		Clear_Addr_Flag(I2C_Handle);
 8000ac2:	68f8      	ldr	r0, [r7, #12]
 8000ac4:	f7ff fe14 	bl	80006f0 <Clear_Addr_Flag>
		//PrintData(UART_Handle, "Address flag cleared.\n\r");

		while(!(Check_Flag(I2C_Handle, SR1_RXNE_Flag)));
 8000ac8:	bf00      	nop
 8000aca:	2140      	movs	r1, #64	; 0x40
 8000acc:	68f8      	ldr	r0, [r7, #12]
 8000ace:	f7ff fdc5 	bl	800065c <Check_Flag>
 8000ad2:	4603      	mov	r3, r0
 8000ad4:	2b00      	cmp	r3, #0
 8000ad6:	d0f8      	beq.n	8000aca <I2C_MasterRecieve+0x66>

		if(restart_condition == I2C_No_Restart)
 8000ad8:	7e3b      	ldrb	r3, [r7, #24]
 8000ada:	2b00      	cmp	r3, #0
 8000adc:	d102      	bne.n	8000ae4 <I2C_MasterRecieve+0x80>
		{
			//Generate stop condition
			Generate_Stop_Condition(I2C_Handle);
 8000ade:	68f8      	ldr	r0, [r7, #12]
 8000ae0:	f7ff fdd1 	bl	8000686 <Generate_Stop_Condition>
			//PrintData(UART_Handle, "Stop Condition Generated.\n\r");
		}

		*RxData = I2C_Handle->I2Cx->DR;
 8000ae4:	68fb      	ldr	r3, [r7, #12]
 8000ae6:	68db      	ldr	r3, [r3, #12]
 8000ae8:	691b      	ldr	r3, [r3, #16]
 8000aea:	b2da      	uxtb	r2, r3
 8000aec:	68bb      	ldr	r3, [r7, #8]
 8000aee:	701a      	strb	r2, [r3, #0]
	}

	if(number_of_bytes > 1)
 8000af0:	79bb      	ldrb	r3, [r7, #6]
 8000af2:	2b01      	cmp	r3, #1
 8000af4:	d92b      	bls.n	8000b4e <I2C_MasterRecieve+0xea>
	{
		Clear_Addr_Flag(I2C_Handle);
 8000af6:	68f8      	ldr	r0, [r7, #12]
 8000af8:	f7ff fdfa 	bl	80006f0 <Clear_Addr_Flag>
		//PrintData(UART_Handle, "Address flag cleared.\n\r");

		while(number_of_bytes > 0)
 8000afc:	e024      	b.n	8000b48 <I2C_MasterRecieve+0xe4>
		{
			//PrintData(UART_Handle, "Number of bytes > 0. \n\r");

			while(!(Check_Flag(I2C_Handle, SR1_RXNE_Flag)));
 8000afe:	bf00      	nop
 8000b00:	2140      	movs	r1, #64	; 0x40
 8000b02:	68f8      	ldr	r0, [r7, #12]
 8000b04:	f7ff fdaa 	bl	800065c <Check_Flag>
 8000b08:	4603      	mov	r3, r0
 8000b0a:	2b00      	cmp	r3, #0
 8000b0c:	d0f8      	beq.n	8000b00 <I2C_MasterRecieve+0x9c>

			*RxData = I2C_Handle->I2Cx->DR;
 8000b0e:	68fb      	ldr	r3, [r7, #12]
 8000b10:	68db      	ldr	r3, [r3, #12]
 8000b12:	691b      	ldr	r3, [r3, #16]
 8000b14:	b2da      	uxtb	r2, r3
 8000b16:	68bb      	ldr	r3, [r7, #8]
 8000b18:	701a      	strb	r2, [r3, #0]

			if(number_of_bytes == 2)
 8000b1a:	79bb      	ldrb	r3, [r7, #6]
 8000b1c:	2b02      	cmp	r3, #2
 8000b1e:	d10d      	bne.n	8000b3c <I2C_MasterRecieve+0xd8>
			{
				I2C_Handle->I2Cx->CR1 &= ~(CR1_ACK_Enable);
 8000b20:	68fb      	ldr	r3, [r7, #12]
 8000b22:	68db      	ldr	r3, [r3, #12]
 8000b24:	681a      	ldr	r2, [r3, #0]
 8000b26:	68fb      	ldr	r3, [r7, #12]
 8000b28:	68db      	ldr	r3, [r3, #12]
 8000b2a:	f422 6280 	bic.w	r2, r2, #1024	; 0x400
 8000b2e:	601a      	str	r2, [r3, #0]
				//PrintData(UART_Handle, "ACK disabled.\n\r");

				if(restart_condition == I2C_No_Restart)
 8000b30:	7e3b      	ldrb	r3, [r7, #24]
 8000b32:	2b00      	cmp	r3, #0
 8000b34:	d102      	bne.n	8000b3c <I2C_MasterRecieve+0xd8>
				{
					//Generate stop condition
					Generate_Stop_Condition(I2C_Handle);
 8000b36:	68f8      	ldr	r0, [r7, #12]
 8000b38:	f7ff fda5 	bl	8000686 <Generate_Stop_Condition>
					//PrintData(UART_Handle, "Stop Condition Generated.\n\r");
				}
			}

			RxData++;
 8000b3c:	68bb      	ldr	r3, [r7, #8]
 8000b3e:	3301      	adds	r3, #1
 8000b40:	60bb      	str	r3, [r7, #8]

			number_of_bytes--;
 8000b42:	79bb      	ldrb	r3, [r7, #6]
 8000b44:	3b01      	subs	r3, #1
 8000b46:	71bb      	strb	r3, [r7, #6]
		while(number_of_bytes > 0)
 8000b48:	79bb      	ldrb	r3, [r7, #6]
 8000b4a:	2b00      	cmp	r3, #0
 8000b4c:	d1d7      	bne.n	8000afe <I2C_MasterRecieve+0x9a>

		}
	}

	I2C_Handle->I2Cx->CR1 |= CR1_ACK_Enable;
 8000b4e:	68fb      	ldr	r3, [r7, #12]
 8000b50:	68db      	ldr	r3, [r3, #12]
 8000b52:	681a      	ldr	r2, [r3, #0]
 8000b54:	68fb      	ldr	r3, [r7, #12]
 8000b56:	68db      	ldr	r3, [r3, #12]
 8000b58:	f442 6280 	orr.w	r2, r2, #1024	; 0x400
 8000b5c:	601a      	str	r2, [r3, #0]
}
 8000b5e:	bf00      	nop
 8000b60:	3710      	adds	r7, #16
 8000b62:	46bd      	mov	sp, r7
 8000b64:	bd80      	pop	{r7, pc}
	...

08000b68 <RCC_AHB1Cmd>:
 * @param	AHB1_Periph: Specific peripheral selected by the user (GPIOx, SPIx, I2Cx etc)
 *
 * @param	State: Specifies whether to enable or disable the peripheral.
 */
void RCC_AHB1Cmd(uint32_t AHB1_Periph, FunctionalState State)
{
 8000b68:	b480      	push	{r7}
 8000b6a:	b083      	sub	sp, #12
 8000b6c:	af00      	add	r7, sp, #0
 8000b6e:	6078      	str	r0, [r7, #4]
 8000b70:	460b      	mov	r3, r1
 8000b72:	70fb      	strb	r3, [r7, #3]
	if(State == ENABLE)
 8000b74:	78fb      	ldrb	r3, [r7, #3]
 8000b76:	2b01      	cmp	r3, #1
 8000b78:	d106      	bne.n	8000b88 <RCC_AHB1Cmd+0x20>
	{
		RCC->AHB1ENR |= AHB1_Periph;
 8000b7a:	4b0a      	ldr	r3, [pc, #40]	; (8000ba4 <RCC_AHB1Cmd+0x3c>)
 8000b7c:	6b1a      	ldr	r2, [r3, #48]	; 0x30
 8000b7e:	4909      	ldr	r1, [pc, #36]	; (8000ba4 <RCC_AHB1Cmd+0x3c>)
 8000b80:	687b      	ldr	r3, [r7, #4]
 8000b82:	4313      	orrs	r3, r2
 8000b84:	630b      	str	r3, [r1, #48]	; 0x30

	else
	{
		RCC->AHB1ENR &= ~AHB1_Periph;
	}
}
 8000b86:	e006      	b.n	8000b96 <RCC_AHB1Cmd+0x2e>
		RCC->AHB1ENR &= ~AHB1_Periph;
 8000b88:	4b06      	ldr	r3, [pc, #24]	; (8000ba4 <RCC_AHB1Cmd+0x3c>)
 8000b8a:	6b1a      	ldr	r2, [r3, #48]	; 0x30
 8000b8c:	687b      	ldr	r3, [r7, #4]
 8000b8e:	43db      	mvns	r3, r3
 8000b90:	4904      	ldr	r1, [pc, #16]	; (8000ba4 <RCC_AHB1Cmd+0x3c>)
 8000b92:	4013      	ands	r3, r2
 8000b94:	630b      	str	r3, [r1, #48]	; 0x30
}
 8000b96:	bf00      	nop
 8000b98:	370c      	adds	r7, #12
 8000b9a:	46bd      	mov	sp, r7
 8000b9c:	f85d 7b04 	ldr.w	r7, [sp], #4
 8000ba0:	4770      	bx	lr
 8000ba2:	bf00      	nop
 8000ba4:	40023800 	.word	0x40023800

08000ba8 <RCC_APB1Cmd>:
 * @param	APB1_Periph: Specific peripheral selected by the user (GPIOx, SPIx, I2Cx etc)
 *
 * @param	State: Specifies whether to enable or disable the peripheral.
 */
void RCC_APB1Cmd(uint32_t APB1_Periph, FunctionalState State)
{
 8000ba8:	b480      	push	{r7}
 8000baa:	b083      	sub	sp, #12
 8000bac:	af00      	add	r7, sp, #0
 8000bae:	6078      	str	r0, [r7, #4]
 8000bb0:	460b      	mov	r3, r1
 8000bb2:	70fb      	strb	r3, [r7, #3]
	if(State == ENABLE)
 8000bb4:	78fb      	ldrb	r3, [r7, #3]
 8000bb6:	2b01      	cmp	r3, #1
 8000bb8:	d106      	bne.n	8000bc8 <RCC_APB1Cmd+0x20>
	{
		RCC->APB1ENR |= APB1_Periph;
 8000bba:	4b0a      	ldr	r3, [pc, #40]	; (8000be4 <RCC_APB1Cmd+0x3c>)
 8000bbc:	6c1a      	ldr	r2, [r3, #64]	; 0x40
 8000bbe:	4909      	ldr	r1, [pc, #36]	; (8000be4 <RCC_APB1Cmd+0x3c>)
 8000bc0:	687b      	ldr	r3, [r7, #4]
 8000bc2:	4313      	orrs	r3, r2
 8000bc4:	640b      	str	r3, [r1, #64]	; 0x40

	else
	{
		RCC->APB1ENR &= ~APB1_Periph;
	}
}
 8000bc6:	e006      	b.n	8000bd6 <RCC_APB1Cmd+0x2e>
		RCC->APB1ENR &= ~APB1_Periph;
 8000bc8:	4b06      	ldr	r3, [pc, #24]	; (8000be4 <RCC_APB1Cmd+0x3c>)
 8000bca:	6c1a      	ldr	r2, [r3, #64]	; 0x40
 8000bcc:	687b      	ldr	r3, [r7, #4]
 8000bce:	43db      	mvns	r3, r3
 8000bd0:	4904      	ldr	r1, [pc, #16]	; (8000be4 <RCC_APB1Cmd+0x3c>)
 8000bd2:	4013      	ands	r3, r2
 8000bd4:	640b      	str	r3, [r1, #64]	; 0x40
}
 8000bd6:	bf00      	nop
 8000bd8:	370c      	adds	r7, #12
 8000bda:	46bd      	mov	sp, r7
 8000bdc:	f85d 7b04 	ldr.w	r7, [sp], #4
 8000be0:	4770      	bx	lr
 8000be2:	bf00      	nop
 8000be4:	40023800 	.word	0x40023800

08000be8 <RCC_APB2Cmd>:
 * @param	APB2_Periph: Specific peripheral selected by the user (GPIOx, SPIx, I2Cx etc)
 *
 * @param	State: Specifies whether to enable or disable the peripheral.
 */
void RCC_APB2Cmd(uint32_t APB2_Periph, FunctionalState State)
{
 8000be8:	b480      	push	{r7}
 8000bea:	b083      	sub	sp, #12
 8000bec:	af00      	add	r7, sp, #0
 8000bee:	6078      	str	r0, [r7, #4]
 8000bf0:	460b      	mov	r3, r1
 8000bf2:	70fb      	strb	r3, [r7, #3]
	if(State == ENABLE)
 8000bf4:	78fb      	ldrb	r3, [r7, #3]
 8000bf6:	2b01      	cmp	r3, #1
 8000bf8:	d106      	bne.n	8000c08 <RCC_APB2Cmd+0x20>
	{
		RCC->APB2ENR |= APB2_Periph;
 8000bfa:	4b0a      	ldr	r3, [pc, #40]	; (8000c24 <RCC_APB2Cmd+0x3c>)
 8000bfc:	6c5a      	ldr	r2, [r3, #68]	; 0x44
 8000bfe:	4909      	ldr	r1, [pc, #36]	; (8000c24 <RCC_APB2Cmd+0x3c>)
 8000c00:	687b      	ldr	r3, [r7, #4]
 8000c02:	4313      	orrs	r3, r2
 8000c04:	644b      	str	r3, [r1, #68]	; 0x44

	else
	{
		RCC->APB2ENR &= ~APB2_Periph;
	}
}
 8000c06:	e006      	b.n	8000c16 <RCC_APB2Cmd+0x2e>
		RCC->APB2ENR &= ~APB2_Periph;
 8000c08:	4b06      	ldr	r3, [pc, #24]	; (8000c24 <RCC_APB2Cmd+0x3c>)
 8000c0a:	6c5a      	ldr	r2, [r3, #68]	; 0x44
 8000c0c:	687b      	ldr	r3, [r7, #4]
 8000c0e:	43db      	mvns	r3, r3
 8000c10:	4904      	ldr	r1, [pc, #16]	; (8000c24 <RCC_APB2Cmd+0x3c>)
 8000c12:	4013      	ands	r3, r2
 8000c14:	644b      	str	r3, [r1, #68]	; 0x44
}
 8000c16:	bf00      	nop
 8000c18:	370c      	adds	r7, #12
 8000c1a:	46bd      	mov	sp, r7
 8000c1c:	f85d 7b04 	ldr.w	r7, [sp], #4
 8000c20:	4770      	bx	lr
 8000c22:	bf00      	nop
 8000c24:	40023800 	.word	0x40023800

08000c28 <RCC_GetClockFreq>:
 *
 * @param	ClockSource: Points to the ClockSource data structure which contains the varibales to hold
 * 			the frequencies of the SYSCLCK, HCLCK, PCLCK1, PCLCK2.
 */
void RCC_GetClockFreq(RCC_ClockFrequency_t *ClockSource)
{
 8000c28:	b480      	push	{r7}
 8000c2a:	b08b      	sub	sp, #44	; 0x2c
 8000c2c:	af00      	add	r7, sp, #0
 8000c2e:	6078      	str	r0, [r7, #4]
	uint32_t pll_Value = 0, plln = 0, pllm = 2, pllp = 2, pll_src = 0, pll_fvco = 0;
 8000c30:	2300      	movs	r3, #0
 8000c32:	623b      	str	r3, [r7, #32]
 8000c34:	2300      	movs	r3, #0
 8000c36:	61fb      	str	r3, [r7, #28]
 8000c38:	2302      	movs	r3, #2
 8000c3a:	61bb      	str	r3, [r7, #24]
 8000c3c:	2302      	movs	r3, #2
 8000c3e:	617b      	str	r3, [r7, #20]
 8000c40:	2300      	movs	r3, #0
 8000c42:	627b      	str	r3, [r7, #36]	; 0x24
 8000c44:	2300      	movs	r3, #0
 8000c46:	613b      	str	r3, [r7, #16]

	uint32_t temp_variable, prescaler;

	/*Determine the clock source for the SYSCLCK*/
	if(((RCC->CFGR & RCC_CFGR_SWS_Mask) >> 2) == 0x0)
 8000c48:	4b43      	ldr	r3, [pc, #268]	; (8000d58 <RCC_GetClockFreq+0x130>)
 8000c4a:	689b      	ldr	r3, [r3, #8]
 8000c4c:	089b      	lsrs	r3, r3, #2
 8000c4e:	f003 0303 	and.w	r3, r3, #3
 8000c52:	2b00      	cmp	r3, #0
 8000c54:	d103      	bne.n	8000c5e <RCC_GetClockFreq+0x36>
	{
		ClockSource->SYSCLCK = HSI_Value;
 8000c56:	687b      	ldr	r3, [r7, #4]
 8000c58:	4a40      	ldr	r2, [pc, #256]	; (8000d5c <RCC_GetClockFreq+0x134>)
 8000c5a:	601a      	str	r2, [r3, #0]
 8000c5c:	e03f      	b.n	8000cde <RCC_GetClockFreq+0xb6>
	}

	else if(((RCC->CFGR & RCC_CFGR_SWS_Mask) >> 2) == 0x1)
 8000c5e:	4b3e      	ldr	r3, [pc, #248]	; (8000d58 <RCC_GetClockFreq+0x130>)
 8000c60:	689b      	ldr	r3, [r3, #8]
 8000c62:	089b      	lsrs	r3, r3, #2
 8000c64:	f003 0303 	and.w	r3, r3, #3
 8000c68:	2b01      	cmp	r3, #1
 8000c6a:	d103      	bne.n	8000c74 <RCC_GetClockFreq+0x4c>
	{
		ClockSource->SYSCLCK = HSE_Value;
 8000c6c:	687b      	ldr	r3, [r7, #4]
 8000c6e:	4a3c      	ldr	r2, [pc, #240]	; (8000d60 <RCC_GetClockFreq+0x138>)
 8000c70:	601a      	str	r2, [r3, #0]
 8000c72:	e034      	b.n	8000cde <RCC_GetClockFreq+0xb6>
	}

	else if(((RCC->CFGR & RCC_CFGR_SWS_Mask) >> 2) == 0x2)
 8000c74:	4b38      	ldr	r3, [pc, #224]	; (8000d58 <RCC_GetClockFreq+0x130>)
 8000c76:	689b      	ldr	r3, [r3, #8]
 8000c78:	089b      	lsrs	r3, r3, #2
 8000c7a:	f003 0303 	and.w	r3, r3, #3
 8000c7e:	2b02      	cmp	r3, #2
 8000c80:	d12d      	bne.n	8000cde <RCC_GetClockFreq+0xb6>
	{
		/*Determine the input source of the PLL*/
		if(RCC->PLLCFGR & RCC_PLLCFGR_PLLSRC_Mask)
 8000c82:	4b35      	ldr	r3, [pc, #212]	; (8000d58 <RCC_GetClockFreq+0x130>)
 8000c84:	685b      	ldr	r3, [r3, #4]
 8000c86:	f403 0380 	and.w	r3, r3, #4194304	; 0x400000
 8000c8a:	2b00      	cmp	r3, #0
 8000c8c:	d002      	beq.n	8000c94 <RCC_GetClockFreq+0x6c>
		{
			pll_src = HSE_Value;
 8000c8e:	4b34      	ldr	r3, [pc, #208]	; (8000d60 <RCC_GetClockFreq+0x138>)
 8000c90:	627b      	str	r3, [r7, #36]	; 0x24
 8000c92:	e001      	b.n	8000c98 <RCC_GetClockFreq+0x70>
		}

		else
		{
			pll_src = HSI_Value;
 8000c94:	4b31      	ldr	r3, [pc, #196]	; (8000d5c <RCC_GetClockFreq+0x134>)
 8000c96:	627b      	str	r3, [r7, #36]	; 0x24
		}

		plln = ((RCC->PLLCFGR & RCC_PLLCFGR_PLLN_Mask) >> 6);
 8000c98:	4b2f      	ldr	r3, [pc, #188]	; (8000d58 <RCC_GetClockFreq+0x130>)
 8000c9a:	685b      	ldr	r3, [r3, #4]
 8000c9c:	099b      	lsrs	r3, r3, #6
 8000c9e:	f3c3 0308 	ubfx	r3, r3, #0, #9
 8000ca2:	61fb      	str	r3, [r7, #28]
		pllm = (RCC->PLLCFGR & RCC_PLLCFGR_PLLM_Mask);
 8000ca4:	4b2c      	ldr	r3, [pc, #176]	; (8000d58 <RCC_GetClockFreq+0x130>)
 8000ca6:	685b      	ldr	r3, [r3, #4]
 8000ca8:	f003 033f 	and.w	r3, r3, #63	; 0x3f
 8000cac:	61bb      	str	r3, [r7, #24]
		pll_fvco = (pll_src/pllm) * plln;
 8000cae:	6a7a      	ldr	r2, [r7, #36]	; 0x24
 8000cb0:	69bb      	ldr	r3, [r7, #24]
 8000cb2:	fbb2 f2f3 	udiv	r2, r2, r3
 8000cb6:	69fb      	ldr	r3, [r7, #28]
 8000cb8:	fb02 f303 	mul.w	r3, r2, r3
 8000cbc:	613b      	str	r3, [r7, #16]
		pllp = ((((RCC->PLLCFGR & RCC_PLLCFGR_PLLP_Mask) >> 16) * 2) + 2);
 8000cbe:	4b26      	ldr	r3, [pc, #152]	; (8000d58 <RCC_GetClockFreq+0x130>)
 8000cc0:	685b      	ldr	r3, [r3, #4]
 8000cc2:	0c1b      	lsrs	r3, r3, #16
 8000cc4:	f003 0303 	and.w	r3, r3, #3
 8000cc8:	3301      	adds	r3, #1
 8000cca:	005b      	lsls	r3, r3, #1
 8000ccc:	617b      	str	r3, [r7, #20]
		pll_Value = pll_fvco/pllp;
 8000cce:	693a      	ldr	r2, [r7, #16]
 8000cd0:	697b      	ldr	r3, [r7, #20]
 8000cd2:	fbb2 f3f3 	udiv	r3, r2, r3
 8000cd6:	623b      	str	r3, [r7, #32]

		ClockSource->SYSCLCK = pll_Value;
 8000cd8:	687b      	ldr	r3, [r7, #4]
 8000cda:	6a3a      	ldr	r2, [r7, #32]
 8000cdc:	601a      	str	r2, [r3, #0]
	}

	/*Determine the frequency of the HCLCK*/
	temp_variable = ((RCC->CFGR & RCC_CFGR_HPRE_Mask) >> 4);
 8000cde:	4b1e      	ldr	r3, [pc, #120]	; (8000d58 <RCC_GetClockFreq+0x130>)
 8000ce0:	689b      	ldr	r3, [r3, #8]
 8000ce2:	091b      	lsrs	r3, r3, #4
 8000ce4:	f003 030f 	and.w	r3, r3, #15
 8000ce8:	60fb      	str	r3, [r7, #12]
	prescaler = prescalerTable[temp_variable];
 8000cea:	4a1e      	ldr	r2, [pc, #120]	; (8000d64 <RCC_GetClockFreq+0x13c>)
 8000cec:	68fb      	ldr	r3, [r7, #12]
 8000cee:	f832 3013 	ldrh.w	r3, [r2, r3, lsl #1]
 8000cf2:	b29b      	uxth	r3, r3
 8000cf4:	60bb      	str	r3, [r7, #8]
	ClockSource->HCLCK = (ClockSource->SYSCLCK) >> prescaler;
 8000cf6:	687b      	ldr	r3, [r7, #4]
 8000cf8:	681a      	ldr	r2, [r3, #0]
 8000cfa:	68bb      	ldr	r3, [r7, #8]
 8000cfc:	40da      	lsrs	r2, r3
 8000cfe:	687b      	ldr	r3, [r7, #4]
 8000d00:	605a      	str	r2, [r3, #4]

	/*Determine the frequency of the PCLCK1*/
	temp_variable = ((RCC->CFGR & RCC_CFGR_PPRE1_Mask) >> 10);
 8000d02:	4b15      	ldr	r3, [pc, #84]	; (8000d58 <RCC_GetClockFreq+0x130>)
 8000d04:	689b      	ldr	r3, [r3, #8]
 8000d06:	0a9b      	lsrs	r3, r3, #10
 8000d08:	f003 0307 	and.w	r3, r3, #7
 8000d0c:	60fb      	str	r3, [r7, #12]
	prescaler = prescalerTable[temp_variable];
 8000d0e:	4a15      	ldr	r2, [pc, #84]	; (8000d64 <RCC_GetClockFreq+0x13c>)
 8000d10:	68fb      	ldr	r3, [r7, #12]
 8000d12:	f832 3013 	ldrh.w	r3, [r2, r3, lsl #1]
 8000d16:	b29b      	uxth	r3, r3
 8000d18:	60bb      	str	r3, [r7, #8]
	ClockSource->PCLCK1 = (ClockSource->HCLCK) >> prescaler;
 8000d1a:	687b      	ldr	r3, [r7, #4]
 8000d1c:	685a      	ldr	r2, [r3, #4]
 8000d1e:	68bb      	ldr	r3, [r7, #8]
 8000d20:	40da      	lsrs	r2, r3
 8000d22:	687b      	ldr	r3, [r7, #4]
 8000d24:	609a      	str	r2, [r3, #8]

	/*Determine frequency of PCLCK2*/
	temp_variable = ((RCC->CFGR & RCC_CFGR_PPRE2_Mask) >> 13);
 8000d26:	4b0c      	ldr	r3, [pc, #48]	; (8000d58 <RCC_GetClockFreq+0x130>)
 8000d28:	689b      	ldr	r3, [r3, #8]
 8000d2a:	0b5b      	lsrs	r3, r3, #13
 8000d2c:	f003 0307 	and.w	r3, r3, #7
 8000d30:	60fb      	str	r3, [r7, #12]
	prescaler = prescalerTable[temp_variable];
 8000d32:	4a0c      	ldr	r2, [pc, #48]	; (8000d64 <RCC_GetClockFreq+0x13c>)
 8000d34:	68fb      	ldr	r3, [r7, #12]
 8000d36:	f832 3013 	ldrh.w	r3, [r2, r3, lsl #1]
 8000d3a:	b29b      	uxth	r3, r3
 8000d3c:	60bb      	str	r3, [r7, #8]
	ClockSource->PCLCK2 = (ClockSource->HCLCK) >> prescaler;
 8000d3e:	687b      	ldr	r3, [r7, #4]
 8000d40:	685a      	ldr	r2, [r3, #4]
 8000d42:	68bb      	ldr	r3, [r7, #8]
 8000d44:	40da      	lsrs	r2, r3
 8000d46:	687b      	ldr	r3, [r7, #4]
 8000d48:	60da      	str	r2, [r3, #12]

}
 8000d4a:	bf00      	nop
 8000d4c:	372c      	adds	r7, #44	; 0x2c
 8000d4e:	46bd      	mov	sp, r7
 8000d50:	f85d 7b04 	ldr.w	r7, [sp], #4
 8000d54:	4770      	bx	lr
 8000d56:	bf00      	nop
 8000d58:	40023800 	.word	0x40023800
 8000d5c:	00f42400 	.word	0x00f42400
 8000d60:	007a1200 	.word	0x007a1200
 8000d64:	20000000 	.word	0x20000000

08000d68 <UART_Config>:
 *
 * @param	baudrate: Allows the user to input their desired baud-rate for the UART peripheral.
 *
 */
void UART_Config(UART_Config_t *UART_Config, USART_TypeDef *UARTx, uint16_t mode, uint32_t baudrate)
{
 8000d68:	b480      	push	{r7}
 8000d6a:	b085      	sub	sp, #20
 8000d6c:	af00      	add	r7, sp, #0
 8000d6e:	60f8      	str	r0, [r7, #12]
 8000d70:	60b9      	str	r1, [r7, #8]
 8000d72:	603b      	str	r3, [r7, #0]
 8000d74:	4613      	mov	r3, r2
 8000d76:	80fb      	strh	r3, [r7, #6]
	UART_Config->UARTx = UARTx;
 8000d78:	68fb      	ldr	r3, [r7, #12]
 8000d7a:	68ba      	ldr	r2, [r7, #8]
 8000d7c:	611a      	str	r2, [r3, #16]
	UART_Config->Mode = mode;
 8000d7e:	68fb      	ldr	r3, [r7, #12]
 8000d80:	88fa      	ldrh	r2, [r7, #6]
 8000d82:	819a      	strh	r2, [r3, #12]
	UART_Config->BaudRate = baudrate;
 8000d84:	68fb      	ldr	r3, [r7, #12]
 8000d86:	683a      	ldr	r2, [r7, #0]
 8000d88:	609a      	str	r2, [r3, #8]
	UART_Config->World_Length = UART_WORDLEN_8BITS;
 8000d8a:	68fb      	ldr	r3, [r7, #12]
 8000d8c:	2200      	movs	r2, #0
 8000d8e:	805a      	strh	r2, [r3, #2]
	UART_Config->Parity = UART_PARITY_DISABLED;
 8000d90:	68fb      	ldr	r3, [r7, #12]
 8000d92:	2200      	movs	r2, #0
 8000d94:	80da      	strh	r2, [r3, #6]
	UART_Config->oversampling = UART_OVERSAMPLING_16;
 8000d96:	68fb      	ldr	r3, [r7, #12]
 8000d98:	2200      	movs	r2, #0
 8000d9a:	809a      	strh	r2, [r3, #4]
	UART_Config->Stop_Bits = UART_STOPBITS_1;
 8000d9c:	68fb      	ldr	r3, [r7, #12]
 8000d9e:	2200      	movs	r2, #0
 8000da0:	801a      	strh	r2, [r3, #0]
}
 8000da2:	bf00      	nop
 8000da4:	3714      	adds	r7, #20
 8000da6:	46bd      	mov	sp, r7
 8000da8:	f85d 7b04 	ldr.w	r7, [sp], #4
 8000dac:	4770      	bx	lr

08000dae <Select_UART_Periph>:
 *
 * @param	alt_function: Defines the alternate function value to input into the Alternate function register.
 *
 */
void Select_UART_Periph(GPIO_TypeDef *GPIOx, uint8_t pin, AFR_Config_t alt_function)
{
 8000dae:	b580      	push	{r7, lr}
 8000db0:	b08c      	sub	sp, #48	; 0x30
 8000db2:	af04      	add	r7, sp, #16
 8000db4:	6078      	str	r0, [r7, #4]
 8000db6:	460b      	mov	r3, r1
 8000db8:	70fb      	strb	r3, [r7, #3]
 8000dba:	4613      	mov	r3, r2
 8000dbc:	70bb      	strb	r3, [r7, #2]
	GPIO_Config_t GPIOx_UARTx_Tx, GPIOx_UARTx_Rx;

	GPIO_Config(&GPIOx_UARTx_Tx, GPIOx, pin, GPIO_AF, GPIO_PushPull, GPIO_LowSpeed, GPIO_PUPD_None);
 8000dbe:	78fa      	ldrb	r2, [r7, #3]
 8000dc0:	f107 0014 	add.w	r0, r7, #20
 8000dc4:	2300      	movs	r3, #0
 8000dc6:	9302      	str	r3, [sp, #8]
 8000dc8:	2300      	movs	r3, #0
 8000dca:	9301      	str	r3, [sp, #4]
 8000dcc:	2300      	movs	r3, #0
 8000dce:	9300      	str	r3, [sp, #0]
 8000dd0:	2302      	movs	r3, #2
 8000dd2:	6879      	ldr	r1, [r7, #4]
 8000dd4:	f7ff f9fe 	bl	80001d4 <GPIO_Config>
	GPIO_Init(&GPIOx_UARTx_Tx, alt_function);
 8000dd8:	78ba      	ldrb	r2, [r7, #2]
 8000dda:	f107 0314 	add.w	r3, r7, #20
 8000dde:	4611      	mov	r1, r2
 8000de0:	4618      	mov	r0, r3
 8000de2:	f7ff fadf 	bl	80003a4 <GPIO_Init>

	GPIO_Config(&GPIOx_UARTx_Rx, GPIOx, (pin + 1), GPIO_AF, GPIO_PushPull, GPIO_LowSpeed, GPIO_PUPD_None);
 8000de6:	78fb      	ldrb	r3, [r7, #3]
 8000de8:	3301      	adds	r3, #1
 8000dea:	b2da      	uxtb	r2, r3
 8000dec:	f107 0008 	add.w	r0, r7, #8
 8000df0:	2300      	movs	r3, #0
 8000df2:	9302      	str	r3, [sp, #8]
 8000df4:	2300      	movs	r3, #0
 8000df6:	9301      	str	r3, [sp, #4]
 8000df8:	2300      	movs	r3, #0
 8000dfa:	9300      	str	r3, [sp, #0]
 8000dfc:	2302      	movs	r3, #2
 8000dfe:	6879      	ldr	r1, [r7, #4]
 8000e00:	f7ff f9e8 	bl	80001d4 <GPIO_Config>
	GPIO_Init(&GPIOx_UARTx_Rx, alt_function);
 8000e04:	78ba      	ldrb	r2, [r7, #2]
 8000e06:	f107 0308 	add.w	r3, r7, #8
 8000e0a:	4611      	mov	r1, r2
 8000e0c:	4618      	mov	r0, r3
 8000e0e:	f7ff fac9 	bl	80003a4 <GPIO_Init>
}
 8000e12:	bf00      	nop
 8000e14:	3720      	adds	r7, #32
 8000e16:	46bd      	mov	sp, r7
 8000e18:	bd80      	pop	{r7, pc}
	...

08000e1c <Enable_UART_Periph>:
 * 			based on the peripheral selected by the user.
 *
 * @param	UARTx: Defines which UART peripheral the user chooses, this can be: USART1, USART2 or USART6.
 */
void Enable_UART_Periph(USART_TypeDef *UARTx)
{
 8000e1c:	b580      	push	{r7, lr}
 8000e1e:	b082      	sub	sp, #8
 8000e20:	af00      	add	r7, sp, #0
 8000e22:	6078      	str	r0, [r7, #4]
	if(UARTx == USART2)
 8000e24:	687b      	ldr	r3, [r7, #4]
 8000e26:	4a1c      	ldr	r2, [pc, #112]	; (8000e98 <Enable_UART_Periph+0x7c>)
 8000e28:	4293      	cmp	r3, r2
 8000e2a:	d10f      	bne.n	8000e4c <Enable_UART_Periph+0x30>
	{

		Select_UART_Periph(GPIOA, Pin2, AF7);
 8000e2c:	2207      	movs	r2, #7
 8000e2e:	2102      	movs	r1, #2
 8000e30:	481a      	ldr	r0, [pc, #104]	; (8000e9c <Enable_UART_Periph+0x80>)
 8000e32:	f7ff ffbc 	bl	8000dae <Select_UART_Periph>
		Select_UART_Periph(GPIOD, Pin5, AF7);
 8000e36:	2207      	movs	r2, #7
 8000e38:	2105      	movs	r1, #5
 8000e3a:	4819      	ldr	r0, [pc, #100]	; (8000ea0 <Enable_UART_Periph+0x84>)
 8000e3c:	f7ff ffb7 	bl	8000dae <Select_UART_Periph>

		RCC_APB1Cmd(USART2_Enable, ENABLE);
 8000e40:	2101      	movs	r1, #1
 8000e42:	f44f 3000 	mov.w	r0, #131072	; 0x20000
 8000e46:	f7ff feaf 	bl	8000ba8 <RCC_APB1Cmd>
		Select_UART_Periph(GPIOC, Pin6, AF7);

		RCC_APB2Cmd(USART6_Enable, ENABLE);

	}
}
 8000e4a:	e020      	b.n	8000e8e <Enable_UART_Periph+0x72>
	else if(UARTx == USART1)
 8000e4c:	687b      	ldr	r3, [r7, #4]
 8000e4e:	4a15      	ldr	r2, [pc, #84]	; (8000ea4 <Enable_UART_Periph+0x88>)
 8000e50:	4293      	cmp	r3, r2
 8000e52:	d10e      	bne.n	8000e72 <Enable_UART_Periph+0x56>
		Select_UART_Periph(GPIOA, Pin9, AF7);
 8000e54:	2207      	movs	r2, #7
 8000e56:	2109      	movs	r1, #9
 8000e58:	4810      	ldr	r0, [pc, #64]	; (8000e9c <Enable_UART_Periph+0x80>)
 8000e5a:	f7ff ffa8 	bl	8000dae <Select_UART_Periph>
		Select_UART_Periph(GPIOB, Pin6, AF7);
 8000e5e:	2207      	movs	r2, #7
 8000e60:	2106      	movs	r1, #6
 8000e62:	4811      	ldr	r0, [pc, #68]	; (8000ea8 <Enable_UART_Periph+0x8c>)
 8000e64:	f7ff ffa3 	bl	8000dae <Select_UART_Periph>
		RCC_APB2Cmd(USART1_Enable, ENABLE);
 8000e68:	2101      	movs	r1, #1
 8000e6a:	2010      	movs	r0, #16
 8000e6c:	f7ff febc 	bl	8000be8 <RCC_APB2Cmd>
}
 8000e70:	e00d      	b.n	8000e8e <Enable_UART_Periph+0x72>
		Select_UART_Periph(GPIOA, Pin11, AF8);
 8000e72:	2208      	movs	r2, #8
 8000e74:	210b      	movs	r1, #11
 8000e76:	4809      	ldr	r0, [pc, #36]	; (8000e9c <Enable_UART_Periph+0x80>)
 8000e78:	f7ff ff99 	bl	8000dae <Select_UART_Periph>
		Select_UART_Periph(GPIOC, Pin6, AF7);
 8000e7c:	2207      	movs	r2, #7
 8000e7e:	2106      	movs	r1, #6
 8000e80:	480a      	ldr	r0, [pc, #40]	; (8000eac <Enable_UART_Periph+0x90>)
 8000e82:	f7ff ff94 	bl	8000dae <Select_UART_Periph>
		RCC_APB2Cmd(USART6_Enable, ENABLE);
 8000e86:	2101      	movs	r1, #1
 8000e88:	2020      	movs	r0, #32
 8000e8a:	f7ff fead 	bl	8000be8 <RCC_APB2Cmd>
}
 8000e8e:	bf00      	nop
 8000e90:	3708      	adds	r7, #8
 8000e92:	46bd      	mov	sp, r7
 8000e94:	bd80      	pop	{r7, pc}
 8000e96:	bf00      	nop
 8000e98:	40004400 	.word	0x40004400
 8000e9c:	40020000 	.word	0x40020000
 8000ea0:	40020c00 	.word	0x40020c00
 8000ea4:	40011000 	.word	0x40011000
 8000ea8:	40020400 	.word	0x40020400
 8000eac:	40020800 	.word	0x40020800

08000eb0 <Set_BaudRate>:
 *@param	ClockSource: Defines the specific clock source for the MCU which includes SYSCLK,
 *			HCLK, PCLK1, PCLK2.
 *
 */
void Set_BaudRate(RCC_ClockFrequency_t *ClockSource, UART_Config_t *UART_Config)
{
 8000eb0:	b580      	push	{r7, lr}
 8000eb2:	b08a      	sub	sp, #40	; 0x28
 8000eb4:	af00      	add	r7, sp, #0
 8000eb6:	6078      	str	r0, [r7, #4]
 8000eb8:	6039      	str	r1, [r7, #0]
	RCC_GetClockFreq(ClockSource);
 8000eba:	6878      	ldr	r0, [r7, #4]
 8000ebc:	f7ff feb4 	bl	8000c28 <RCC_GetClockFreq>

	uint32_t periph_clk, over8, usartdiv, baudrate;
	uint32_t mantissa_value, fraction_value, tempvariable = 0;
 8000ec0:	2300      	movs	r3, #0
 8000ec2:	623b      	str	r3, [r7, #32]

	over8 = (UART_Config->UARTx->CR1) & (UART_CR1_OVER8_Mask);
 8000ec4:	683b      	ldr	r3, [r7, #0]
 8000ec6:	691b      	ldr	r3, [r3, #16]
 8000ec8:	68db      	ldr	r3, [r3, #12]
 8000eca:	f403 4300 	and.w	r3, r3, #32768	; 0x8000
 8000ece:	61fb      	str	r3, [r7, #28]
	baudrate = UART_Config->BaudRate;
 8000ed0:	683b      	ldr	r3, [r7, #0]
 8000ed2:	689b      	ldr	r3, [r3, #8]
 8000ed4:	61bb      	str	r3, [r7, #24]

	if(UART_Config->UARTx == USART2)
 8000ed6:	683b      	ldr	r3, [r7, #0]
 8000ed8:	691b      	ldr	r3, [r3, #16]
 8000eda:	4a32      	ldr	r2, [pc, #200]	; (8000fa4 <Set_BaudRate+0xf4>)
 8000edc:	4293      	cmp	r3, r2
 8000ede:	d103      	bne.n	8000ee8 <Set_BaudRate+0x38>
	{
		periph_clk = ClockSource->PCLCK1;
 8000ee0:	687b      	ldr	r3, [r7, #4]
 8000ee2:	689b      	ldr	r3, [r3, #8]
 8000ee4:	627b      	str	r3, [r7, #36]	; 0x24
 8000ee6:	e002      	b.n	8000eee <Set_BaudRate+0x3e>
	}

	else
	{
		periph_clk = ClockSource->PCLCK2;
 8000ee8:	687b      	ldr	r3, [r7, #4]
 8000eea:	68db      	ldr	r3, [r3, #12]
 8000eec:	627b      	str	r3, [r7, #36]	; 0x24
	}

	/*Over-sampling by 16*/
	if(over8 == 0)
 8000eee:	69fb      	ldr	r3, [r7, #28]
 8000ef0:	2b00      	cmp	r3, #0
 8000ef2:	d125      	bne.n	8000f40 <Set_BaudRate+0x90>
	{
		usartdiv = (periph_clk * 100)/(16 * baudrate);
 8000ef4:	6a7b      	ldr	r3, [r7, #36]	; 0x24
 8000ef6:	2264      	movs	r2, #100	; 0x64
 8000ef8:	fb03 f202 	mul.w	r2, r3, r2
 8000efc:	69bb      	ldr	r3, [r7, #24]
 8000efe:	011b      	lsls	r3, r3, #4
 8000f00:	fbb2 f3f3 	udiv	r3, r2, r3
 8000f04:	617b      	str	r3, [r7, #20]
		mantissa_value = usartdiv/100;
 8000f06:	697b      	ldr	r3, [r7, #20]
 8000f08:	4a27      	ldr	r2, [pc, #156]	; (8000fa8 <Set_BaudRate+0xf8>)
 8000f0a:	fba2 2303 	umull	r2, r3, r2, r3
 8000f0e:	095b      	lsrs	r3, r3, #5
 8000f10:	613b      	str	r3, [r7, #16]
		tempvariable |= mantissa_value << 4;
 8000f12:	693b      	ldr	r3, [r7, #16]
 8000f14:	011b      	lsls	r3, r3, #4
 8000f16:	6a3a      	ldr	r2, [r7, #32]
 8000f18:	4313      	orrs	r3, r2
 8000f1a:	623b      	str	r3, [r7, #32]

		fraction_value = (((usartdiv - (mantissa_value * 100)) * 16) + 50)/100;
 8000f1c:	693b      	ldr	r3, [r7, #16]
 8000f1e:	2264      	movs	r2, #100	; 0x64
 8000f20:	fb02 f303 	mul.w	r3, r2, r3
 8000f24:	697a      	ldr	r2, [r7, #20]
 8000f26:	1ad3      	subs	r3, r2, r3
 8000f28:	011b      	lsls	r3, r3, #4
 8000f2a:	3332      	adds	r3, #50	; 0x32
 8000f2c:	4a1e      	ldr	r2, [pc, #120]	; (8000fa8 <Set_BaudRate+0xf8>)
 8000f2e:	fba2 2303 	umull	r2, r3, r2, r3
 8000f32:	095b      	lsrs	r3, r3, #5
 8000f34:	60fb      	str	r3, [r7, #12]
		tempvariable |= fraction_value;
 8000f36:	6a3a      	ldr	r2, [r7, #32]
 8000f38:	68fb      	ldr	r3, [r7, #12]
 8000f3a:	4313      	orrs	r3, r2
 8000f3c:	623b      	str	r3, [r7, #32]
 8000f3e:	e024      	b.n	8000f8a <Set_BaudRate+0xda>
	}

	/*Over-sampling by 8*/
	else
	{
		usartdiv = ((periph_clk * 100)/(8 * baudrate));
 8000f40:	6a7b      	ldr	r3, [r7, #36]	; 0x24
 8000f42:	2264      	movs	r2, #100	; 0x64
 8000f44:	fb03 f202 	mul.w	r2, r3, r2
 8000f48:	69bb      	ldr	r3, [r7, #24]
 8000f4a:	00db      	lsls	r3, r3, #3
 8000f4c:	fbb2 f3f3 	udiv	r3, r2, r3
 8000f50:	617b      	str	r3, [r7, #20]
		mantissa_value = usartdiv/100;
 8000f52:	697b      	ldr	r3, [r7, #20]
 8000f54:	4a14      	ldr	r2, [pc, #80]	; (8000fa8 <Set_BaudRate+0xf8>)
 8000f56:	fba2 2303 	umull	r2, r3, r2, r3
 8000f5a:	095b      	lsrs	r3, r3, #5
 8000f5c:	613b      	str	r3, [r7, #16]
		tempvariable |= (mantissa_value << 4);
 8000f5e:	693b      	ldr	r3, [r7, #16]
 8000f60:	011b      	lsls	r3, r3, #4
 8000f62:	6a3a      	ldr	r2, [r7, #32]
 8000f64:	4313      	orrs	r3, r2
 8000f66:	623b      	str	r3, [r7, #32]
		fraction_value = (((usartdiv - (mantissa_value * 100)) * 8) + 50)/100;
 8000f68:	693b      	ldr	r3, [r7, #16]
 8000f6a:	2264      	movs	r2, #100	; 0x64
 8000f6c:	fb02 f303 	mul.w	r3, r2, r3
 8000f70:	697a      	ldr	r2, [r7, #20]
 8000f72:	1ad3      	subs	r3, r2, r3
 8000f74:	00db      	lsls	r3, r3, #3
 8000f76:	3332      	adds	r3, #50	; 0x32
 8000f78:	4a0b      	ldr	r2, [pc, #44]	; (8000fa8 <Set_BaudRate+0xf8>)
 8000f7a:	fba2 2303 	umull	r2, r3, r2, r3
 8000f7e:	095b      	lsrs	r3, r3, #5
 8000f80:	60fb      	str	r3, [r7, #12]
		tempvariable |= fraction_value;
 8000f82:	6a3a      	ldr	r2, [r7, #32]
 8000f84:	68fb      	ldr	r3, [r7, #12]
 8000f86:	4313      	orrs	r3, r2
 8000f88:	623b      	str	r3, [r7, #32]
	}

	UART_Config->UARTx->BRR |= tempvariable;
 8000f8a:	683b      	ldr	r3, [r7, #0]
 8000f8c:	691b      	ldr	r3, [r3, #16]
 8000f8e:	6899      	ldr	r1, [r3, #8]
 8000f90:	683b      	ldr	r3, [r7, #0]
 8000f92:	691b      	ldr	r3, [r3, #16]
 8000f94:	6a3a      	ldr	r2, [r7, #32]
 8000f96:	430a      	orrs	r2, r1
 8000f98:	609a      	str	r2, [r3, #8]
}
 8000f9a:	bf00      	nop
 8000f9c:	3728      	adds	r7, #40	; 0x28
 8000f9e:	46bd      	mov	sp, r7
 8000fa0:	bd80      	pop	{r7, pc}
 8000fa2:	bf00      	nop
 8000fa4:	40004400 	.word	0x40004400
 8000fa8:	51eb851f 	.word	0x51eb851f

08000fac <UART_Init>:
 *
 * @param	UART_Config_t: This points to the UART_Config_t data structure that holds all of the information for the
 * 			specific UART peripheral.
 */
void UART_Init(UART_Config_t *UART_Config)
{
 8000fac:	b580      	push	{r7, lr}
 8000fae:	b086      	sub	sp, #24
 8000fb0:	af00      	add	r7, sp, #0
 8000fb2:	6078      	str	r0, [r7, #4]
	RCC_ClockFrequency_t Clock_Source;

	Enable_UART_Periph(UART_Config->UARTx);
 8000fb4:	687b      	ldr	r3, [r7, #4]
 8000fb6:	691b      	ldr	r3, [r3, #16]
 8000fb8:	4618      	mov	r0, r3
 8000fba:	f7ff ff2f 	bl	8000e1c <Enable_UART_Periph>

	/**Configuring UART**/

	/*Select the Word-Length (8 bits/9 bits)*/
	UART_Config->UARTx->CR1 &= ~UART_WORDLEN_9BITS;
 8000fbe:	687b      	ldr	r3, [r7, #4]
 8000fc0:	691b      	ldr	r3, [r3, #16]
 8000fc2:	68da      	ldr	r2, [r3, #12]
 8000fc4:	687b      	ldr	r3, [r7, #4]
 8000fc6:	691b      	ldr	r3, [r3, #16]
 8000fc8:	f422 5280 	bic.w	r2, r2, #4096	; 0x1000
 8000fcc:	60da      	str	r2, [r3, #12]
	UART_Config->UARTx->CR1 |= UART_Config->World_Length;
 8000fce:	687b      	ldr	r3, [r7, #4]
 8000fd0:	691b      	ldr	r3, [r3, #16]
 8000fd2:	68da      	ldr	r2, [r3, #12]
 8000fd4:	687b      	ldr	r3, [r7, #4]
 8000fd6:	885b      	ldrh	r3, [r3, #2]
 8000fd8:	4619      	mov	r1, r3
 8000fda:	687b      	ldr	r3, [r7, #4]
 8000fdc:	691b      	ldr	r3, [r3, #16]
 8000fde:	430a      	orrs	r2, r1
 8000fe0:	60da      	str	r2, [r3, #12]

	/*Select over-sampling (8 or 16)*/
	UART_Config->UARTx->CR1 &= ~UART_OVERSAMPLING_8;
 8000fe2:	687b      	ldr	r3, [r7, #4]
 8000fe4:	691b      	ldr	r3, [r3, #16]
 8000fe6:	68da      	ldr	r2, [r3, #12]
 8000fe8:	687b      	ldr	r3, [r7, #4]
 8000fea:	691b      	ldr	r3, [r3, #16]
 8000fec:	f422 4200 	bic.w	r2, r2, #32768	; 0x8000
 8000ff0:	60da      	str	r2, [r3, #12]
	UART_Config->UARTx->CR1 |= UART_Config->oversampling;
 8000ff2:	687b      	ldr	r3, [r7, #4]
 8000ff4:	691b      	ldr	r3, [r3, #16]
 8000ff6:	68da      	ldr	r2, [r3, #12]
 8000ff8:	687b      	ldr	r3, [r7, #4]
 8000ffa:	889b      	ldrh	r3, [r3, #4]
 8000ffc:	4619      	mov	r1, r3
 8000ffe:	687b      	ldr	r3, [r7, #4]
 8001000:	691b      	ldr	r3, [r3, #16]
 8001002:	430a      	orrs	r2, r1
 8001004:	60da      	str	r2, [r3, #12]

	/*Select transmission direction (Tx, Rx or Tx & Rx)*/
	UART_Config->UARTx->CR1 &= ~UART_MODE_TXRX;
 8001006:	687b      	ldr	r3, [r7, #4]
 8001008:	691b      	ldr	r3, [r3, #16]
 800100a:	68da      	ldr	r2, [r3, #12]
 800100c:	687b      	ldr	r3, [r7, #4]
 800100e:	691b      	ldr	r3, [r3, #16]
 8001010:	f022 020c 	bic.w	r2, r2, #12
 8001014:	60da      	str	r2, [r3, #12]
	UART_Config->UARTx->CR1 |= UART_Config->Mode;
 8001016:	687b      	ldr	r3, [r7, #4]
 8001018:	691b      	ldr	r3, [r3, #16]
 800101a:	68da      	ldr	r2, [r3, #12]
 800101c:	687b      	ldr	r3, [r7, #4]
 800101e:	899b      	ldrh	r3, [r3, #12]
 8001020:	4619      	mov	r1, r3
 8001022:	687b      	ldr	r3, [r7, #4]
 8001024:	691b      	ldr	r3, [r3, #16]
 8001026:	430a      	orrs	r2, r1
 8001028:	60da      	str	r2, [r3, #12]

	/*Select parity (odd or even)*/
	UART_Config->UARTx->CR1 &= ~UART_PARITY_ODD;
 800102a:	687b      	ldr	r3, [r7, #4]
 800102c:	691b      	ldr	r3, [r3, #16]
 800102e:	68da      	ldr	r2, [r3, #12]
 8001030:	687b      	ldr	r3, [r7, #4]
 8001032:	691b      	ldr	r3, [r3, #16]
 8001034:	f422 62c0 	bic.w	r2, r2, #1536	; 0x600
 8001038:	60da      	str	r2, [r3, #12]
	UART_Config->UARTx->CR1 |= UART_Config->Parity;
 800103a:	687b      	ldr	r3, [r7, #4]
 800103c:	691b      	ldr	r3, [r3, #16]
 800103e:	68da      	ldr	r2, [r3, #12]
 8001040:	687b      	ldr	r3, [r7, #4]
 8001042:	88db      	ldrh	r3, [r3, #6]
 8001044:	4619      	mov	r1, r3
 8001046:	687b      	ldr	r3, [r7, #4]
 8001048:	691b      	ldr	r3, [r3, #16]
 800104a:	430a      	orrs	r2, r1
 800104c:	60da      	str	r2, [r3, #12]

	/*Select number of stop bits (0.5, 1, 1.5, 2)*/
	UART_Config->UARTx->CR2 &= ~UART_STOPBITS_1_5;
 800104e:	687b      	ldr	r3, [r7, #4]
 8001050:	691b      	ldr	r3, [r3, #16]
 8001052:	691a      	ldr	r2, [r3, #16]
 8001054:	687b      	ldr	r3, [r7, #4]
 8001056:	691b      	ldr	r3, [r3, #16]
 8001058:	f422 5240 	bic.w	r2, r2, #12288	; 0x3000
 800105c:	611a      	str	r2, [r3, #16]
	UART_Config->UARTx->CR2 |= UART_Config->Stop_Bits;
 800105e:	687b      	ldr	r3, [r7, #4]
 8001060:	691b      	ldr	r3, [r3, #16]
 8001062:	691a      	ldr	r2, [r3, #16]
 8001064:	687b      	ldr	r3, [r7, #4]
 8001066:	881b      	ldrh	r3, [r3, #0]
 8001068:	4619      	mov	r1, r3
 800106a:	687b      	ldr	r3, [r7, #4]
 800106c:	691b      	ldr	r3, [r3, #16]
 800106e:	430a      	orrs	r2, r1
 8001070:	611a      	str	r2, [r3, #16]

	/*Calculate and set baud-rate*/
	Set_BaudRate(&Clock_Source, UART_Config);
 8001072:	f107 0308 	add.w	r3, r7, #8
 8001076:	6879      	ldr	r1, [r7, #4]
 8001078:	4618      	mov	r0, r3
 800107a:	f7ff ff19 	bl	8000eb0 <Set_BaudRate>

	/*Enable UART*/
	UART_Config->UARTx->CR1 |= UART_CR1_Enable;
 800107e:	687b      	ldr	r3, [r7, #4]
 8001080:	691b      	ldr	r3, [r3, #16]
 8001082:	68da      	ldr	r2, [r3, #12]
 8001084:	687b      	ldr	r3, [r7, #4]
 8001086:	691b      	ldr	r3, [r3, #16]
 8001088:	f442 5200 	orr.w	r2, r2, #8192	; 0x2000
 800108c:	60da      	str	r2, [r3, #12]

}
 800108e:	bf00      	nop
 8001090:	3718      	adds	r7, #24
 8001092:	46bd      	mov	sp, r7
 8001094:	bd80      	pop	{r7, pc}

08001096 <WriteByte>:
 * 			specific UART peripheral.
 *
 * @param	data: This specifies the data the user wishes to transmit.
 */
void WriteByte(UART_Config_t *UART_Config, uint16_t data)
{
 8001096:	b480      	push	{r7}
 8001098:	b083      	sub	sp, #12
 800109a:	af00      	add	r7, sp, #0
 800109c:	6078      	str	r0, [r7, #4]
 800109e:	460b      	mov	r3, r1
 80010a0:	807b      	strh	r3, [r7, #2]
	while(!(UART_Config->UARTx->SR) && (UART_SR_TXE_Mask)){}
 80010a2:	bf00      	nop
 80010a4:	687b      	ldr	r3, [r7, #4]
 80010a6:	691b      	ldr	r3, [r3, #16]
 80010a8:	681b      	ldr	r3, [r3, #0]
 80010aa:	2b00      	cmp	r3, #0
 80010ac:	d0fa      	beq.n	80010a4 <WriteByte+0xe>

	//Word length is 9 bits
	if(UART_Config->UARTx->CR1 & UART_WORDLEN_9BITS)
 80010ae:	687b      	ldr	r3, [r7, #4]
 80010b0:	691b      	ldr	r3, [r3, #16]
 80010b2:	68db      	ldr	r3, [r3, #12]
 80010b4:	f403 5380 	and.w	r3, r3, #4096	; 0x1000
 80010b8:	2b00      	cmp	r3, #0
 80010ba:	d01a      	beq.n	80010f2 <WriteByte+0x5c>
	{
		//If parity is enabled 8 bits of data are sent with the 9th bit being the parity bit
		if((UART_Config->UARTx->CR1 & UART_PARITY_EVEN) || (UART_Config->UARTx->CR1 & UART_PARITY_ODD))
 80010bc:	687b      	ldr	r3, [r7, #4]
 80010be:	691b      	ldr	r3, [r3, #16]
 80010c0:	68db      	ldr	r3, [r3, #12]
 80010c2:	f403 6380 	and.w	r3, r3, #1024	; 0x400
 80010c6:	2b00      	cmp	r3, #0
 80010c8:	d106      	bne.n	80010d8 <WriteByte+0x42>
 80010ca:	687b      	ldr	r3, [r7, #4]
 80010cc:	691b      	ldr	r3, [r3, #16]
 80010ce:	68db      	ldr	r3, [r3, #12]
 80010d0:	f403 63c0 	and.w	r3, r3, #1536	; 0x600
 80010d4:	2b00      	cmp	r3, #0
 80010d6:	d005      	beq.n	80010e4 <WriteByte+0x4e>
		{
			UART_Config->UARTx->DR = ((uint8_t)data);
 80010d8:	887b      	ldrh	r3, [r7, #2]
 80010da:	b2da      	uxtb	r2, r3
 80010dc:	687b      	ldr	r3, [r7, #4]
 80010de:	691b      	ldr	r3, [r3, #16]
 80010e0:	605a      	str	r2, [r3, #4]
 80010e2:	e021      	b.n	8001128 <WriteByte+0x92>
		}

		//If parity is disabled then all 9 bits of data will be read as information
		else
		{
			UART_Config->UARTx->DR = (data & 0x1FF);
 80010e4:	887a      	ldrh	r2, [r7, #2]
 80010e6:	687b      	ldr	r3, [r7, #4]
 80010e8:	691b      	ldr	r3, [r3, #16]
 80010ea:	f3c2 0208 	ubfx	r2, r2, #0, #9
 80010ee:	605a      	str	r2, [r3, #4]
		else
		{
			UART_Config->UARTx->DR = ((uint8_t)data);
		}
	}
}
 80010f0:	e01a      	b.n	8001128 <WriteByte+0x92>
		if((UART_Config->UARTx->CR1 & UART_PARITY_EVEN) || (UART_Config->UARTx->CR1 & UART_PARITY_ODD))
 80010f2:	687b      	ldr	r3, [r7, #4]
 80010f4:	691b      	ldr	r3, [r3, #16]
 80010f6:	68db      	ldr	r3, [r3, #12]
 80010f8:	f403 6380 	and.w	r3, r3, #1024	; 0x400
 80010fc:	2b00      	cmp	r3, #0
 80010fe:	d106      	bne.n	800110e <WriteByte+0x78>
 8001100:	687b      	ldr	r3, [r7, #4]
 8001102:	691b      	ldr	r3, [r3, #16]
 8001104:	68db      	ldr	r3, [r3, #12]
 8001106:	f403 63c0 	and.w	r3, r3, #1536	; 0x600
 800110a:	2b00      	cmp	r3, #0
 800110c:	d006      	beq.n	800111c <WriteByte+0x86>
			UART_Config->UARTx->DR = (data & 0x7F);
 800110e:	887a      	ldrh	r2, [r7, #2]
 8001110:	687b      	ldr	r3, [r7, #4]
 8001112:	691b      	ldr	r3, [r3, #16]
 8001114:	f002 027f 	and.w	r2, r2, #127	; 0x7f
 8001118:	605a      	str	r2, [r3, #4]
 800111a:	e005      	b.n	8001128 <WriteByte+0x92>
			UART_Config->UARTx->DR = ((uint8_t)data);
 800111c:	887b      	ldrh	r3, [r7, #2]
 800111e:	b2da      	uxtb	r2, r3
 8001120:	687b      	ldr	r3, [r7, #4]
 8001122:	691b      	ldr	r3, [r3, #16]
 8001124:	605a      	str	r2, [r3, #4]
}
 8001126:	e7ff      	b.n	8001128 <WriteByte+0x92>
 8001128:	bf00      	nop
 800112a:	370c      	adds	r7, #12
 800112c:	46bd      	mov	sp, r7
 800112e:	f85d 7b04 	ldr.w	r7, [sp], #4
 8001132:	4770      	bx	lr

08001134 <main>:
void I2C1_EV_IRQHandler();

const uint8_t slave_address = 0b1101000;

int main()
{
 8001134:	b580      	push	{r7, lr}
 8001136:	b088      	sub	sp, #32
 8001138:	af02      	add	r7, sp, #8
	uint8_t output_data[8] = {0x00, 5, 14, 70, 2, 8, 18, 36};
 800113a:	4a28      	ldr	r2, [pc, #160]	; (80011dc <main+0xa8>)
 800113c:	f107 030c 	add.w	r3, r7, #12
 8001140:	e892 0003 	ldmia.w	r2, {r0, r1}
 8001144:	e883 0003 	stmia.w	r3, {r0, r1}
	uint8_t output_register_address[1] = {0x00};
 8001148:	2300      	movs	r3, #0
 800114a:	723b      	strb	r3, [r7, #8]
	uint8_t input_data[7];

	//Configure UART settings
	UART_Config(&UART2, USART2, UART_MODE_TX, 115200);
 800114c:	f44f 33e1 	mov.w	r3, #115200	; 0x1c200
 8001150:	2208      	movs	r2, #8
 8001152:	4923      	ldr	r1, [pc, #140]	; (80011e0 <main+0xac>)
 8001154:	4823      	ldr	r0, [pc, #140]	; (80011e4 <main+0xb0>)
 8001156:	f7ff fe07 	bl	8000d68 <UART_Config>

	//Initilize the UART
	UART_Init(&UART2);
 800115a:	4822      	ldr	r0, [pc, #136]	; (80011e4 <main+0xb0>)
 800115c:	f7ff ff26 	bl	8000fac <UART_Init>

	I2C_Config(&I2C_Example, I2C1, SM_100KHZ, FM_DUTY_2, Pin8, Pin9);
 8001160:	2309      	movs	r3, #9
 8001162:	9301      	str	r3, [sp, #4]
 8001164:	2308      	movs	r3, #8
 8001166:	9300      	str	r3, [sp, #0]
 8001168:	2300      	movs	r3, #0
 800116a:	4a1f      	ldr	r2, [pc, #124]	; (80011e8 <main+0xb4>)
 800116c:	491f      	ldr	r1, [pc, #124]	; (80011ec <main+0xb8>)
 800116e:	4820      	ldr	r0, [pc, #128]	; (80011f0 <main+0xbc>)
 8001170:	f7ff fad2 	bl	8000718 <I2C_Config>

	I2C_DeInit(&I2C_Example);
 8001174:	481e      	ldr	r0, [pc, #120]	; (80011f0 <main+0xbc>)
 8001176:	f7ff faeb 	bl	8000750 <I2C_DeInit>

	I2C_Init(&I2C_Example);
 800117a:	481d      	ldr	r0, [pc, #116]	; (80011f0 <main+0xbc>)
 800117c:	f7ff fb28 	bl	80007d0 <I2C_Init>

	I2C_MasterTransmit(&I2C_Example, output_data, slave_address, 8, I2C_Restart);
 8001180:	2268      	movs	r2, #104	; 0x68
 8001182:	f107 010c 	add.w	r1, r7, #12
 8001186:	2301      	movs	r3, #1
 8001188:	9300      	str	r3, [sp, #0]
 800118a:	2308      	movs	r3, #8
 800118c:	4818      	ldr	r0, [pc, #96]	; (80011f0 <main+0xbc>)
 800118e:	f7ff fc09 	bl	80009a4 <I2C_MasterTransmit>
	//I2C_MasterTransmitIT(&I2C_Example, output_data, slave_address, 7, I2C_No_Restart);

	I2C_MasterTransmit(&I2C_Example, output_register_address, slave_address, 1, I2C_Restart);
 8001192:	2268      	movs	r2, #104	; 0x68
 8001194:	f107 0108 	add.w	r1, r7, #8
 8001198:	2301      	movs	r3, #1
 800119a:	9300      	str	r3, [sp, #0]
 800119c:	2301      	movs	r3, #1
 800119e:	4814      	ldr	r0, [pc, #80]	; (80011f0 <main+0xbc>)
 80011a0:	f7ff fc00 	bl	80009a4 <I2C_MasterTransmit>
	//I2C_MasterTransmitIT(&I2C_Example, output_register_address, slave_address, 1, I2C_No_Restart);

	I2C_MasterRecieve(&I2C_Example, input_data, slave_address, 7, I2C_No_Restart);
 80011a4:	2268      	movs	r2, #104	; 0x68
 80011a6:	4639      	mov	r1, r7
 80011a8:	2300      	movs	r3, #0
 80011aa:	9300      	str	r3, [sp, #0]
 80011ac:	2307      	movs	r3, #7
 80011ae:	4810      	ldr	r0, [pc, #64]	; (80011f0 <main+0xbc>)
 80011b0:	f7ff fc58 	bl	8000a64 <I2C_MasterRecieve>
	//I2C_MasterRecieveIT(&I2C_Example, input_data, slave_address, 7, I2C_No_Restart);

	for(int i = 0; i < 7; i++)
 80011b4:	2300      	movs	r3, #0
 80011b6:	617b      	str	r3, [r7, #20]
 80011b8:	e00b      	b.n	80011d2 <main+0x9e>
	{
		//For purpose of debugging, I chose to print each byte individually as opposed to printing the array all at once
		//PrintData(&UART2, "\n\rData: \n\r\n\r");
		WriteByte(&UART2, input_data[i]);
 80011ba:	463a      	mov	r2, r7
 80011bc:	697b      	ldr	r3, [r7, #20]
 80011be:	4413      	add	r3, r2
 80011c0:	781b      	ldrb	r3, [r3, #0]
 80011c2:	b29b      	uxth	r3, r3
 80011c4:	4619      	mov	r1, r3
 80011c6:	4807      	ldr	r0, [pc, #28]	; (80011e4 <main+0xb0>)
 80011c8:	f7ff ff65 	bl	8001096 <WriteByte>
	for(int i = 0; i < 7; i++)
 80011cc:	697b      	ldr	r3, [r7, #20]
 80011ce:	3301      	adds	r3, #1
 80011d0:	617b      	str	r3, [r7, #20]
 80011d2:	697b      	ldr	r3, [r7, #20]
 80011d4:	2b06      	cmp	r3, #6
 80011d6:	ddf0      	ble.n	80011ba <main+0x86>
	}


	while(1)
 80011d8:	e7fe      	b.n	80011d8 <main+0xa4>
 80011da:	bf00      	nop
 80011dc:	080012a8 	.word	0x080012a8
 80011e0:	40004400 	.word	0x40004400
 80011e4:	2000005c 	.word	0x2000005c
 80011e8:	000186a0 	.word	0x000186a0
 80011ec:	40005400 	.word	0x40005400
 80011f0:	2000003c 	.word	0x2000003c

080011f4 <Reset_Handler>:

  .section .text.Reset_Handler
  .weak Reset_Handler
  .type Reset_Handler, %function
Reset_Handler:
  ldr   r0, =_estack
 80011f4:	480d      	ldr	r0, [pc, #52]	; (800122c <LoopForever+0x2>)
  mov   sp, r0          /* set stack pointer */
 80011f6:	4685      	mov	sp, r0
/* Call the clock system initialization function.*/
  bl  SystemInit
 80011f8:	f3af 8000 	nop.w

/* Copy the data segment initializers from flash to SRAM */
  ldr r0, =_sdata
 80011fc:	480c      	ldr	r0, [pc, #48]	; (8001230 <LoopForever+0x6>)
  ldr r1, =_edata
 80011fe:	490d      	ldr	r1, [pc, #52]	; (8001234 <LoopForever+0xa>)
  ldr r2, =_sidata
 8001200:	4a0d      	ldr	r2, [pc, #52]	; (8001238 <LoopForever+0xe>)
  movs r3, #0
 8001202:	2300      	movs	r3, #0
  b LoopCopyDataInit
 8001204:	e002      	b.n	800120c <LoopCopyDataInit>

08001206 <CopyDataInit>:

CopyDataInit:
  ldr r4, [r2, r3]
 8001206:	58d4      	ldr	r4, [r2, r3]
  str r4, [r0, r3]
 8001208:	50c4      	str	r4, [r0, r3]
  adds r3, r3, #4
 800120a:	3304      	adds	r3, #4

0800120c <LoopCopyDataInit>:

LoopCopyDataInit:
  adds r4, r0, r3
 800120c:	18c4      	adds	r4, r0, r3
  cmp r4, r1
 800120e:	428c      	cmp	r4, r1
  bcc CopyDataInit
 8001210:	d3f9      	bcc.n	8001206 <CopyDataInit>

/* Zero fill the bss segment. */
  ldr r2, =_sbss
 8001212:	4a0a      	ldr	r2, [pc, #40]	; (800123c <LoopForever+0x12>)
  ldr r4, =_ebss
 8001214:	4c0a      	ldr	r4, [pc, #40]	; (8001240 <LoopForever+0x16>)
  movs r3, #0
 8001216:	2300      	movs	r3, #0
  b LoopFillZerobss
 8001218:	e001      	b.n	800121e <LoopFillZerobss>

0800121a <FillZerobss>:

FillZerobss:
  str  r3, [r2]
 800121a:	6013      	str	r3, [r2, #0]
  adds r2, r2, #4
 800121c:	3204      	adds	r2, #4

0800121e <LoopFillZerobss>:

LoopFillZerobss:
  cmp r2, r4
 800121e:	42a2      	cmp	r2, r4
  bcc FillZerobss
 8001220:	d3fb      	bcc.n	800121a <FillZerobss>

/* Call static constructors */
  bl __libc_init_array
 8001222:	f000 f811 	bl	8001248 <__libc_init_array>
/* Call the application's entry point.*/
  bl main
 8001226:	f7ff ff85 	bl	8001134 <main>

0800122a <LoopForever>:

LoopForever:
  b LoopForever
 800122a:	e7fe      	b.n	800122a <LoopForever>
  ldr   r0, =_estack
 800122c:	20018000 	.word	0x20018000
  ldr r0, =_sdata
 8001230:	20000000 	.word	0x20000000
  ldr r1, =_edata
 8001234:	20000020 	.word	0x20000020
  ldr r2, =_sidata
 8001238:	080012b8 	.word	0x080012b8
  ldr r2, =_sbss
 800123c:	20000020 	.word	0x20000020
  ldr r4, =_ebss
 8001240:	20000070 	.word	0x20000070

08001244 <ADC_IRQHandler>:
 * @retval : None
*/
  .section .text.Default_Handler,"ax",%progbits
Default_Handler:
Infinite_Loop:
  b Infinite_Loop
 8001244:	e7fe      	b.n	8001244 <ADC_IRQHandler>
	...

08001248 <__libc_init_array>:
 8001248:	b570      	push	{r4, r5, r6, lr}
 800124a:	4d0d      	ldr	r5, [pc, #52]	; (8001280 <__libc_init_array+0x38>)
 800124c:	4c0d      	ldr	r4, [pc, #52]	; (8001284 <__libc_init_array+0x3c>)
 800124e:	1b64      	subs	r4, r4, r5
 8001250:	10a4      	asrs	r4, r4, #2
 8001252:	2600      	movs	r6, #0
 8001254:	42a6      	cmp	r6, r4
 8001256:	d109      	bne.n	800126c <__libc_init_array+0x24>
 8001258:	4d0b      	ldr	r5, [pc, #44]	; (8001288 <__libc_init_array+0x40>)
 800125a:	4c0c      	ldr	r4, [pc, #48]	; (800128c <__libc_init_array+0x44>)
 800125c:	f000 f818 	bl	8001290 <_init>
 8001260:	1b64      	subs	r4, r4, r5
 8001262:	10a4      	asrs	r4, r4, #2
 8001264:	2600      	movs	r6, #0
 8001266:	42a6      	cmp	r6, r4
 8001268:	d105      	bne.n	8001276 <__libc_init_array+0x2e>
 800126a:	bd70      	pop	{r4, r5, r6, pc}
 800126c:	f855 3b04 	ldr.w	r3, [r5], #4
 8001270:	4798      	blx	r3
 8001272:	3601      	adds	r6, #1
 8001274:	e7ee      	b.n	8001254 <__libc_init_array+0xc>
 8001276:	f855 3b04 	ldr.w	r3, [r5], #4
 800127a:	4798      	blx	r3
 800127c:	3601      	adds	r6, #1
 800127e:	e7f2      	b.n	8001266 <__libc_init_array+0x1e>
 8001280:	080012b0 	.word	0x080012b0
 8001284:	080012b0 	.word	0x080012b0
 8001288:	080012b0 	.word	0x080012b0
 800128c:	080012b4 	.word	0x080012b4

08001290 <_init>:
 8001290:	b5f8      	push	{r3, r4, r5, r6, r7, lr}
 8001292:	bf00      	nop
 8001294:	bcf8      	pop	{r3, r4, r5, r6, r7}
 8001296:	bc08      	pop	{r3}
 8001298:	469e      	mov	lr, r3
 800129a:	4770      	bx	lr

0800129c <_fini>:
 800129c:	b5f8      	push	{r3, r4, r5, r6, r7, lr}
 800129e:	bf00      	nop
 80012a0:	bcf8      	pop	{r3, r4, r5, r6, r7}
 80012a2:	bc08      	pop	{r3}
 80012a4:	469e      	mov	lr, r3
 80012a6:	4770      	bx	lr
